
bomb:     file format elf64-x86-64
bomb
architecture: i386:x86-64, flags 0x00000150:
HAS_SYMS, DYNAMIC, D_PAGED
start address 0x00000000000011e0

Program Header:
    PHDR off    0x0000000000000040 vaddr 0x0000000000000040 paddr 0x0000000000000040 align 2**3
         filesz 0x00000000000001f8 memsz 0x00000000000001f8 flags r--
  INTERP off    0x0000000000000238 vaddr 0x0000000000000238 paddr 0x0000000000000238 align 2**0
         filesz 0x000000000000001c memsz 0x000000000000001c flags r--
    LOAD off    0x0000000000000000 vaddr 0x0000000000000000 paddr 0x0000000000000000 align 2**21
         filesz 0x0000000000003848 memsz 0x0000000000003848 flags r-x
    LOAD off    0x0000000000003ce8 vaddr 0x0000000000203ce8 paddr 0x0000000000203ce8 align 2**21
         filesz 0x0000000000000998 memsz 0x0000000000001068 flags rw-
 DYNAMIC off    0x0000000000003cf8 vaddr 0x0000000000203cf8 paddr 0x0000000000203cf8 align 2**3
         filesz 0x00000000000001f0 memsz 0x00000000000001f0 flags rw-
    NOTE off    0x0000000000000254 vaddr 0x0000000000000254 paddr 0x0000000000000254 align 2**2
         filesz 0x0000000000000044 memsz 0x0000000000000044 flags r--
EH_FRAME off    0x00000000000031fc vaddr 0x00000000000031fc paddr 0x00000000000031fc align 2**2
         filesz 0x000000000000011c memsz 0x000000000000011c flags r--
   STACK off    0x0000000000000000 vaddr 0x0000000000000000 paddr 0x0000000000000000 align 2**4
         filesz 0x0000000000000000 memsz 0x0000000000000000 flags rw-
   RELRO off    0x0000000000003ce8 vaddr 0x0000000000203ce8 paddr 0x0000000000203ce8 align 2**0
         filesz 0x0000000000000318 memsz 0x0000000000000318 flags r--

Dynamic Section:
  NEEDED               libc.so.6
  INIT                 0x0000000000000ff8
  FINI                 0x0000000000002ae4
  INIT_ARRAY           0x0000000000203ce8
  INIT_ARRAYSZ         0x0000000000000008
  FINI_ARRAY           0x0000000000203cf0
  FINI_ARRAYSZ         0x0000000000000008
  GNU_HASH             0x0000000000000298
  STRTAB               0x0000000000000628
  SYMTAB               0x00000000000002c8
  STRSZ                0x00000000000001bc
  SYMENT               0x0000000000000018
  DEBUG                0x0000000000000000
  PLTGOT               0x0000000000203ee8
  PLTRELSZ             0x0000000000000288
  PLTREL               0x0000000000000007
  JMPREL               0x0000000000000d70
  RELA                 0x0000000000000890
  RELASZ               0x00000000000004e0
  RELAENT              0x0000000000000018
  FLAGS                0x0000000000000008
  FLAGS_1              0x0000000008000001
  VERNEED              0x0000000000000830
  VERNEEDNUM           0x0000000000000001
  VERSYM               0x00000000000007e4
  RELACOUNT            0x000000000000002c

Version References:
  required from libc.so.6:
    0x0d696913 0x00 06 GLIBC_2.3
    0x0d696917 0x00 05 GLIBC_2.7
    0x09691974 0x00 04 GLIBC_2.3.4
    0x0d696914 0x00 03 GLIBC_2.4
    0x09691a75 0x00 02 GLIBC_2.2.5

Sections:
Idx Name          Size      VMA               LMA               File off  Algn
  0 .interp       0000001c  0000000000000238  0000000000000238  00000238  2**0
                  CONTENTS, ALLOC, LOAD, READONLY, DATA
  1 .note.ABI-tag 00000020  0000000000000254  0000000000000254  00000254  2**2
                  CONTENTS, ALLOC, LOAD, READONLY, DATA
  2 .note.gnu.build-id 00000024  0000000000000274  0000000000000274  00000274  2**2
                  CONTENTS, ALLOC, LOAD, READONLY, DATA
  3 .gnu.hash     00000030  0000000000000298  0000000000000298  00000298  2**3
                  CONTENTS, ALLOC, LOAD, READONLY, DATA
  4 .dynsym       00000360  00000000000002c8  00000000000002c8  000002c8  2**3
                  CONTENTS, ALLOC, LOAD, READONLY, DATA
  5 .dynstr       000001bc  0000000000000628  0000000000000628  00000628  2**0
                  CONTENTS, ALLOC, LOAD, READONLY, DATA
  6 .gnu.version  00000048  00000000000007e4  00000000000007e4  000007e4  2**1
                  CONTENTS, ALLOC, LOAD, READONLY, DATA
  7 .gnu.version_r 00000060  0000000000000830  0000000000000830  00000830  2**3
                  CONTENTS, ALLOC, LOAD, READONLY, DATA
  8 .rela.dyn     000004e0  0000000000000890  0000000000000890  00000890  2**3
                  CONTENTS, ALLOC, LOAD, READONLY, DATA
  9 .rela.plt     00000288  0000000000000d70  0000000000000d70  00000d70  2**3
                  CONTENTS, ALLOC, LOAD, READONLY, DATA
 10 .init         00000017  0000000000000ff8  0000000000000ff8  00000ff8  2**2
                  CONTENTS, ALLOC, LOAD, READONLY, CODE
 11 .plt          000001c0  0000000000001010  0000000000001010  00001010  2**4
                  CONTENTS, ALLOC, LOAD, READONLY, CODE
 12 .plt.got      00000008  00000000000011d0  00000000000011d0  000011d0  2**3
                  CONTENTS, ALLOC, LOAD, READONLY, CODE
 13 .text         00001902  00000000000011e0  00000000000011e0  000011e0  2**4
                  CONTENTS, ALLOC, LOAD, READONLY, CODE
 14 .fini         00000009  0000000000002ae4  0000000000002ae4  00002ae4  2**2
                  CONTENTS, ALLOC, LOAD, READONLY, CODE
 15 .rodata       0000070c  0000000000002af0  0000000000002af0  00002af0  2**4
                  CONTENTS, ALLOC, LOAD, READONLY, DATA
 16 .eh_frame_hdr 0000011c  00000000000031fc  00000000000031fc  000031fc  2**2
                  CONTENTS, ALLOC, LOAD, READONLY, DATA
 17 .eh_frame     00000530  0000000000003318  0000000000003318  00003318  2**3
                  CONTENTS, ALLOC, LOAD, READONLY, DATA
 18 .init_array   00000008  0000000000203ce8  0000000000203ce8  00003ce8  2**3
                  CONTENTS, ALLOC, LOAD, DATA
 19 .fini_array   00000008  0000000000203cf0  0000000000203cf0  00003cf0  2**3
                  CONTENTS, ALLOC, LOAD, DATA
 20 .dynamic      000001f0  0000000000203cf8  0000000000203cf8  00003cf8  2**3
                  CONTENTS, ALLOC, LOAD, DATA
 21 .got          00000118  0000000000203ee8  0000000000203ee8  00003ee8  2**3
                  CONTENTS, ALLOC, LOAD, DATA
 22 .data         00000680  0000000000204000  0000000000204000  00004000  2**5
                  CONTENTS, ALLOC, LOAD, DATA
 23 .bss          000006d0  0000000000204680  0000000000204680  00004680  2**5
                  ALLOC
 24 .comment      0000002b  0000000000000000  0000000000000000  00004680  2**0
                  CONTENTS, READONLY
 25 .debug_aranges 00000030  0000000000000000  0000000000000000  000046ab  2**0
                  CONTENTS, READONLY, DEBUGGING
 26 .debug_info   000008eb  0000000000000000  0000000000000000  000046db  2**0
                  CONTENTS, READONLY, DEBUGGING
 27 .debug_abbrev 000001c8  0000000000000000  0000000000000000  00004fc6  2**0
                  CONTENTS, READONLY, DEBUGGING
 28 .debug_line   000001a6  0000000000000000  0000000000000000  0000518e  2**0
                  CONTENTS, READONLY, DEBUGGING
 29 .debug_str    0000035a  0000000000000000  0000000000000000  00005334  2**0
                  CONTENTS, READONLY, DEBUGGING
 30 .debug_loc    000002ef  0000000000000000  0000000000000000  0000568e  2**0
                  CONTENTS, READONLY, DEBUGGING
SYMBOL TABLE:
0000000000000238 l    d  .interp	0000000000000000              .interp
0000000000000254 l    d  .note.ABI-tag	0000000000000000              .note.ABI-tag
0000000000000274 l    d  .note.gnu.build-id	0000000000000000              .note.gnu.build-id
0000000000000298 l    d  .gnu.hash	0000000000000000              .gnu.hash
00000000000002c8 l    d  .dynsym	0000000000000000              .dynsym
0000000000000628 l    d  .dynstr	0000000000000000              .dynstr
00000000000007e4 l    d  .gnu.version	0000000000000000              .gnu.version
0000000000000830 l    d  .gnu.version_r	0000000000000000              .gnu.version_r
0000000000000890 l    d  .rela.dyn	0000000000000000              .rela.dyn
0000000000000d70 l    d  .rela.plt	0000000000000000              .rela.plt
0000000000000ff8 l    d  .init	0000000000000000              .init
0000000000001010 l    d  .plt	0000000000000000              .plt
00000000000011d0 l    d  .plt.got	0000000000000000              .plt.got
00000000000011e0 l    d  .text	0000000000000000              .text
0000000000002ae4 l    d  .fini	0000000000000000              .fini
0000000000002af0 l    d  .rodata	0000000000000000              .rodata
00000000000031fc l    d  .eh_frame_hdr	0000000000000000              .eh_frame_hdr
0000000000003318 l    d  .eh_frame	0000000000000000              .eh_frame
0000000000203ce8 l    d  .init_array	0000000000000000              .init_array
0000000000203cf0 l    d  .fini_array	0000000000000000              .fini_array
0000000000203cf8 l    d  .dynamic	0000000000000000              .dynamic
0000000000203ee8 l    d  .got	0000000000000000              .got
0000000000204000 l    d  .data	0000000000000000              .data
0000000000204680 l    d  .bss	0000000000000000              .bss
0000000000000000 l    d  .comment	0000000000000000              .comment
0000000000000000 l    d  .debug_aranges	0000000000000000              .debug_aranges
0000000000000000 l    d  .debug_info	0000000000000000              .debug_info
0000000000000000 l    d  .debug_abbrev	0000000000000000              .debug_abbrev
0000000000000000 l    d  .debug_line	0000000000000000              .debug_line
0000000000000000 l    d  .debug_str	0000000000000000              .debug_str
0000000000000000 l    d  .debug_loc	0000000000000000              .debug_loc
0000000000000000 l    df *ABS*	0000000000000000              crtstuff.c
0000000000001210 l     F .text	0000000000000000              deregister_tm_clones
0000000000001250 l     F .text	0000000000000000              register_tm_clones
00000000000012a0 l     F .text	0000000000000000              __do_global_dtors_aux
00000000002046a8 l     O .bss	0000000000000001              completed.7697
0000000000203cf0 l     O .fini_array	0000000000000000              __do_global_dtors_aux_fini_array_entry
00000000000012e0 l     F .text	0000000000000000              frame_dummy
0000000000203ce8 l     O .init_array	0000000000000000              __frame_dummy_init_array_entry
0000000000000000 l    df *ABS*	0000000000000000              bomb.c
0000000000000000 l    df *ABS*	0000000000000000              phases.c
0000000000002cb0 l     O .rodata	0000000000000010              array.3415
0000000000000000 l    df *ABS*	0000000000000000              support.c
0000000000001870 l     F .text	000000000000005c              sig_handler
0000000000000000 l    df *ABS*	0000000000000000              driverlib.c
0000000000001ec9 l     F .text	00000000000000bc              rio_readlineb
0000000000000000 l    df *ABS*	0000000000000000              crtstuff.c
0000000000003844 l     O .eh_frame	0000000000000000              __FRAME_END__
0000000000000000 l    df *ABS*	0000000000000000              
0000000000203cf0 l       .init_array	0000000000000000              __init_array_end
0000000000203cf8 l     O .dynamic	0000000000000000              _DYNAMIC
0000000000203ce8 l       .init_array	0000000000000000              __init_array_start
00000000000031fc l       .eh_frame_hdr	0000000000000000              __GNU_EH_FRAME_HDR
0000000000203ee8 l     O .got	0000000000000000              _GLOBAL_OFFSET_TABLE_
0000000000002ae0 g     F .text	0000000000000002              __libc_csu_fini
0000000000001aa2 g     F .text	000000000000004e              skip
0000000000000000       F *UND*	0000000000000000              getenv@@GLIBC_2.2.5
0000000000001dd5 g     F .text	00000000000000c4              phase_defused
00000000002041e0 g     O .data	0000000000000018              n31
0000000000000000       F *UND*	0000000000000000              strcasecmp@@GLIBC_2.2.5
0000000000000000       F *UND*	0000000000000000              __errno_location@@GLIBC_2.2.5
0000000000000000  w      *UND*	0000000000000000              _ITM_deregisterTMCloneTable
0000000000204680 g     O .bss	0000000000000008              stdout@@GLIBC_2.2.5
0000000000204000  w      .data	0000000000000000              data_start
00000000002046c0 g     O .bss	0000000000000640              input_strings
0000000000000000       F *UND*	0000000000000000              strcpy@@GLIBC_2.2.5
00000000002041c0 g     O .data	0000000000000018              n33
0000000000000000       F *UND*	0000000000000000              puts@@GLIBC_2.2.5
0000000000204690 g     O .bss	0000000000000008              stdin@@GLIBC_2.2.5
0000000000000000       F *UND*	0000000000000000              write@@GLIBC_2.2.5
0000000000204680 g       .data	0000000000000000              _edata
0000000000204070 g     O .data	0000000000000018              n44
00000000002040d0 g     O .data	0000000000000018              n46
0000000000204090 g     O .data	0000000000000018              n42
00000000002040f0 g     O .data	0000000000000018              n48
0000000000002ae4 g     F .fini	0000000000000000              _fini
0000000000000000       F *UND*	0000000000000000              __stack_chk_fail@@GLIBC_2.4
00000000002046ac g     O .bss	0000000000000004              num_input_strings
000000000000162e g     F .text	000000000000008a              phase_5
0000000000001a65 g     F .text	0000000000000002              initialize_bomb_solve
0000000000001a67 g     F .text	000000000000003b              blank_line
0000000000001f85 g     F .text	0000000000000841              submitr
00000000000014d2 g     F .text	00000000000000b4              phase_3
0000000000001444 g     F .text	0000000000000020              phase_1
00000000000018cc g     F .text	0000000000000027              invalid_phase
00000000000027f1 g     F .text	0000000000000209              init_driver
0000000000000000       F *UND*	0000000000000000              alarm@@GLIBC_2.2.5
0000000000000000       F *UND*	0000000000000000              close@@GLIBC_2.2.5
0000000000204240 g     O .data	0000000000000010              node3
0000000000000000       F *UND*	0000000000000000              read@@GLIBC_2.2.5
0000000000000000       F *UND*	0000000000000000              __libc_start_main@@GLIBC_2.2.5
0000000000000000       F *UND*	0000000000000000              fgets@@GLIBC_2.2.5
0000000000001c14 g     F .text	000000000000003c              explode_bomb
0000000000204220 g     O .data	0000000000000010              node1
0000000000204000 g       .data	0000000000000000              __data_start
0000000000000000       F *UND*	0000000000000000              signal@@GLIBC_2.2.5
0000000000000000       F *UND*	0000000000000000              gethostbyname@@GLIBC_2.2.5
0000000000204260 g     O .data	0000000000000010              node5
0000000000000000       F *UND*	0000000000000000              __memmove_chk@@GLIBC_2.3.4
0000000000000000  w      *UND*	0000000000000000              __gmon_start__
0000000000000000       F *UND*	0000000000000000              strtol@@GLIBC_2.2.5
00000000000017da g     F .text	000000000000003f              fun7
0000000000204008 g     O .data	0000000000000000              .hidden __dso_handle
0000000000002af0 g     O .rodata	0000000000000004              _IO_stdin_used
0000000000204180 g     O .data	0000000000000018              n22
0000000000204280 g     O .data	0000000000000400              host_table
0000000000001586 g     F .text	0000000000000039              func4
0000000000204140 g     O .data	0000000000000018              n1
00000000000018f3 g     F .text	000000000000001d              string_length
0000000000002a70 g     F .text	0000000000000065              __libc_csu_init
0000000000000000       F *UND*	0000000000000000              fflush@@GLIBC_2.2.5
0000000000000000       F *UND*	0000000000000000              __isoc99_sscanf@@GLIBC_2.7
0000000000204200 g     O .data	0000000000000018              n34
00000000002041a0 g     O .data	0000000000000018              n32
0000000000204d50 g       .bss	0000000000000000              _end
00000000000011e0 g     F .text	000000000000002b              _start
0000000000001819 g     F .text	0000000000000057              secret_phase
00000000002046b0 g     O .bss	0000000000000008              infile
0000000000001e99 g     F .text	0000000000000030              sigalrm_handler
00000000000027c6 g     F .text	000000000000002b              init_timeout
0000000000204680 g       .bss	0000000000000000              __bss_start
0000000000204135 g     O .data	0000000000000007              userid
00000000000012ea g     F .text	000000000000015a              main
0000000000000000       F *UND*	0000000000000000              __printf_chk@@GLIBC_2.3.4
0000000000204050 g     O .data	0000000000000018              n47
00000000002040b0 g     O .data	0000000000000018              n43
0000000000204030 g     O .data	0000000000000018              n41
0000000000001c91 g     F .text	0000000000000144              read_line
0000000000204010 g     O .data	0000000000000018              n45
0000000000001910 g     F .text	0000000000000067              strings_not_equal
00000000000015bf g     F .text	000000000000006f              phase_4
0000000000000000       F *UND*	0000000000000000              fopen@@GLIBC_2.2.5
00000000000016b8 g     F .text	0000000000000122              phase_6
0000000000204d00 g     O .bss	0000000000000050              scratch
00000000000029fa g     F .text	0000000000000073              driver_post
0000000000001af0 g     F .text	0000000000000124              send_msg
0000000000001464 g     F .text	000000000000006e              phase_2
0000000000000000       F *UND*	0000000000000000              gethostname@@GLIBC_2.2.5
0000000000000000       F *UND*	0000000000000000              exit@@GLIBC_2.2.5
000000000020413c g     O .data	0000000000000004              bomb_id
0000000000000000       F *UND*	0000000000000000              connect@@GLIBC_2.2.5
0000000000204680 g     O .data	0000000000000000              .hidden __TMC_END__
0000000000000000       F *UND*	0000000000000000              __fprintf_chk@@GLIBC_2.3.4
0000000000000000  w      *UND*	0000000000000000              _ITM_registerTMCloneTable
0000000000204230 g     O .data	0000000000000010              node2
0000000000204250 g     O .data	0000000000000010              node4
0000000000204120 g     O .data	0000000000000015              user_password
0000000000000000       F *UND*	0000000000000000              sleep@@GLIBC_2.2.5
0000000000204110 g     O .data	0000000000000010              node6
0000000000000000  w    F *UND*	0000000000000000              __cxa_finalize@@GLIBC_2.2.5
0000000000000ff8 g     F .init	0000000000000000              _init
0000000000001c50 g     F .text	0000000000000041              read_six_numbers
0000000000204160 g     O .data	0000000000000018              n21
0000000000001977 g     F .text	00000000000000ee              initialize_bomb
0000000000000000       F *UND*	0000000000000000              __ctype_b_loc@@GLIBC_2.3
00000000002046a0 g     O .bss	0000000000000008              stderr@@GLIBC_2.2.5
0000000000000000       F *UND*	0000000000000000              __sprintf_chk@@GLIBC_2.3.4
0000000000000000       F *UND*	0000000000000000              socket@@GLIBC_2.2.5


Contents of section .interp:
 0238 2f6c6962 36342f6c 642d6c69 6e75782d  /lib64/ld-linux-
 0248 7838362d 36342e73 6f2e3200           x86-64.so.2.    
Contents of section .note.ABI-tag:
 0254 04000000 10000000 01000000 474e5500  ............GNU.
 0264 00000000 03000000 02000000 00000000  ................
Contents of section .note.gnu.build-id:
 0274 04000000 14000000 03000000 474e5500  ............GNU.
 0284 4dc14471 57d727a7 919fbfe4 e7d22a06  M.DqW.'.......*.
 0294 bae05415                             ..T.            
Contents of section .gnu.hash:
 0298 03000000 21000000 01000000 06000000  ....!...........
 02a8 00012000 80011002 21000000 22000000  .. .....!..."...
 02b8 00000000 291d8c1c 66556110 39f28b1c  ....)...fUa.9...
Contents of section .dynsym:
 02c8 00000000 00000000 00000000 00000000  ................
 02d8 00000000 00000000 d2000000 12000000  ................
 02e8 00000000 00000000 00000000 00000000  ................
 02f8 b9000000 12000000 00000000 00000000  ................
 0308 00000000 00000000 80000000 12000000  ................
 0318 00000000 00000000 00000000 00000000  ................
 0328 77010000 20000000 00000000 00000000  w... ...........
 0338 00000000 00000000 19000000 12000000  ................
 0348 00000000 00000000 00000000 00000000  ................
 0358 57000000 12000000 00000000 00000000  W...............
 0368 00000000 00000000 3b010000 12000000  ........;.......
 0378 00000000 00000000 00000000 00000000  ................
 0388 5c000000 12000000 00000000 00000000  \...............
 0398 00000000 00000000 e0000000 12000000  ................
 03a8 00000000 00000000 00000000 00000000  ................
 03b8 00010000 12000000 00000000 00000000  ................
 03c8 00000000 00000000 91000000 12000000  ................
 03d8 00000000 00000000 00000000 00000000  ................
 03e8 29010000 12000000 00000000 00000000  )...............
 03f8 00000000 00000000 7a000000 12000000  ........z.......
 0408 00000000 00000000 00000000 00000000  ................
 0418 50000000 12000000 00000000 00000000  P...............
 0428 00000000 00000000 e6000000 12000000  ................
 0438 00000000 00000000 00000000 00000000  ................
 0448 ab000000 12000000 00000000 00000000  ................
 0458 00000000 00000000 93010000 20000000  ............ ...
 0468 00000000 00000000 00000000 00000000  ................
 0478 73000000 12000000 00000000 00000000  s...............
 0488 00000000 00000000 12000000 12000000  ................
 0498 00000000 00000000 00000000 00000000  ................
 04a8 38000000 12000000 00000000 00000000  8...............
 04b8 00000000 00000000 20000000 12000000  ........ .......
 04c8 00000000 00000000 00000000 00000000  ................
 04d8 32000000 12000000 00000000 00000000  2...............
 04e8 00000000 00000000 f4000000 12000000  ................
 04f8 00000000 00000000 00000000 00000000  ................
 0508 2d000000 12000000 00000000 00000000  -...............
 0518 00000000 00000000 48000000 12000000  ........H.......
 0528 00000000 00000000 00000000 00000000  ................
 0538 96000000 12000000 00000000 00000000  ................
 0548 00000000 00000000 a2010000 20000000  ............ ...
 0558 00000000 00000000 00000000 00000000  ................
 0568 06010000 12000000 00000000 00000000  ................
 0578 00000000 00000000 0c010000 22000000  ............"...
 0588 00000000 00000000 00000000 00000000  ................
 0598 c4000000 12000000 00000000 00000000  ................
 05a8 00000000 00000000 1b010000 12000000  ................
 05b8 00000000 00000000 00000000 00000000  ................
 05c8 0b000000 12000000 00000000 00000000  ................
 05d8 00000000 00000000 a4000000 11001800  ................
 05e8 80462000 00000000 08000000 00000000  .F .............
 05f8 6d000000 11001800 90462000 00000000  m........F .....
 0608 08000000 00000000 d9000000 11001800  ................
 0618 a0462000 00000000 08000000 00000000  .F .............
Contents of section .dynstr:
 0628 006c6962 632e736f 2e360073 6f636b65  .libc.so.6.socke
 0638 74006666 6c757368 00737472 63707900  t.fflush.strcpy.
 0648 5f5f7072 696e7466 5f63686b 00657869  __printf_chk.exi
 0658 7400666f 70656e00 5f5f6973 6f633939  t.fopen.__isoc99
 0668 5f737363 616e6600 636f6e6e 65637400  _sscanf.connect.
 0678 7369676e 616c0070 75747300 5f5f7374  signal.puts.__st
 0688 61636b5f 63686b5f 6661696c 00737464  ack_chk_fail.std
 0698 696e0073 7472746f 6c006667 65747300  in.strtol.fgets.
 06a8 5f5f6572 726e6f5f 6c6f6361 74696f6e  __errno_location
 06b8 00726561 64005f5f 66707269 6e74665f  .read.__fprintf_
 06c8 63686b00 7374646f 7574005f 5f6d656d  chk.stdout.__mem
 06d8 6d6f7665 5f63686b 00737472 63617365  move_chk.strcase
 06e8 636d7000 5f5f6374 7970655f 625f6c6f  cmp.__ctype_b_lo
 06f8 63006765 74656e76 00737464 65727200  c.getenv.stderr.
 0708 616c6172 6d006765 74686f73 7462796e  alarm.gethostbyn
 0718 616d6500 67657468 6f73746e 616d6500  ame.gethostname.
 0728 636c6f73 6500736c 65657000 5f5f6378  close.sleep.__cx
 0738 615f6669 6e616c69 7a65005f 5f737072  a_finalize.__spr
 0748 696e7466 5f63686b 005f5f6c 6962635f  intf_chk.__libc_
 0758 73746172 745f6d61 696e0077 72697465  start_main.write
 0768 00474c49 42435f32 2e330047 4c494243  .GLIBC_2.3.GLIBC
 0778 5f322e37 00474c49 42435f32 2e332e34  _2.7.GLIBC_2.3.4
 0788 00474c49 42435f32 2e340047 4c494243  .GLIBC_2.4.GLIBC
 0798 5f322e32 2e35005f 49544d5f 64657265  _2.2.5._ITM_dere
 07a8 67697374 6572544d 436c6f6e 65546162  gisterTMCloneTab
 07b8 6c65005f 5f676d6f 6e5f7374 6172745f  le.__gmon_start_
 07c8 5f005f49 544d5f72 65676973 74657254  _._ITM_registerT
 07d8 4d436c6f 6e655461 626c6500           MCloneTable.    
Contents of section .gnu.version:
 07e4 00000200 02000200 00000200 02000200  ................
 07f4 03000200 02000200 02000200 02000200  ................
 0804 04000000 02000200 05000400 02000200  ................
 0814 02000200 04000000 02000200 06000400  ................
 0824 02000200 02000200                    ........        
Contents of section .gnu.version_r:
 0830 01000500 01000000 10000000 00000000  ................
 0840 1369690d 00000600 41010000 10000000  .ii.....A.......
 0850 1769690d 00000500 4b010000 10000000  .ii.....K.......
 0860 74196909 00000400 55010000 10000000  t.i.....U.......
 0870 1469690d 00000300 61010000 10000000  .ii.....a.......
 0880 751a6909 00000200 6b010000 00000000  u.i.....k.......
Contents of section .rela.dyn:
 0890 e83c2000 00000000 08000000 00000000  .< .............
 08a0 e0120000 00000000 f03c2000 00000000  .........< .....
 08b0 08000000 00000000 a0120000 00000000  ................
 08c0 08402000 00000000 08000000 00000000  .@ .............
 08d0 08402000 00000000 48412000 00000000  .@ .....HA .....
 08e0 08000000 00000000 60412000 00000000  ........`A .....
 08f0 50412000 00000000 08000000 00000000  PA .............
 0900 80412000 00000000 68412000 00000000  .A .....hA .....
 0910 08000000 00000000 e0412000 00000000  .........A .....
 0920 70412000 00000000 08000000 00000000  pA .............
 0930 a0412000 00000000 88412000 00000000  .A ......A .....
 0940 08000000 00000000 c0412000 00000000  .........A .....
 0950 90412000 00000000 08000000 00000000  .A .............
 0960 00422000 00000000 a8412000 00000000  .B ......A .....
 0970 08000000 00000000 b0402000 00000000  .........@ .....
 0980 b0412000 00000000 08000000 00000000  .A .............
 0990 70402000 00000000 c8412000 00000000  p@ ......A .....
 09a0 08000000 00000000 10402000 00000000  .........@ .....
 09b0 d0412000 00000000 08000000 00000000  .A .............
 09c0 d0402000 00000000 e8412000 00000000  .@ ......A .....
 09d0 08000000 00000000 30402000 00000000  ........0@ .....
 09e0 f0412000 00000000 08000000 00000000  .A .............
 09f0 90402000 00000000 08422000 00000000  .@ ......B .....
 0a00 08000000 00000000 50402000 00000000  ........P@ .....
 0a10 10422000 00000000 08000000 00000000  .B .............
 0a20 f0402000 00000000 28422000 00000000  .@ .....(B .....
 0a30 08000000 00000000 30422000 00000000  ........0B .....
 0a40 38422000 00000000 08000000 00000000  8B .............
 0a50 40422000 00000000 48422000 00000000  @B .....HB .....
 0a60 08000000 00000000 50422000 00000000  ........PB .....
 0a70 58422000 00000000 08000000 00000000  XB .............
 0a80 60422000 00000000 68422000 00000000  `B .....hB .....
 0a90 08000000 00000000 10412000 00000000  .........A .....
 0aa0 80422000 00000000 08000000 00000000  .B .............
 0ab0 672f0000 00000000 88422000 00000000  g/.......B .....
 0ac0 08000000 00000000 6b2f0000 00000000  ........k/......
 0ad0 90422000 00000000 08000000 00000000  .B .............
 0ae0 7e2f0000 00000000 98422000 00000000  ~/.......B .....
 0af0 08000000 00000000 852f0000 00000000  ........./......
 0b00 a0422000 00000000 08000000 00000000  .B .............
 0b10 9b2f0000 00000000 a8422000 00000000  ./.......B .....
 0b20 08000000 00000000 a12f0000 00000000  ........./......
 0b30 b0422000 00000000 08000000 00000000  .B .............
 0b40 b92f0000 00000000 b8422000 00000000  ./.......B .....
 0b50 08000000 00000000 c22f0000 00000000  ........./......
 0b60 c0422000 00000000 08000000 00000000  .B .............
 0b70 dd2f0000 00000000 c8422000 00000000  ./.......B .....
 0b80 08000000 00000000 e62f0000 00000000  ........./......
 0b90 d0422000 00000000 08000000 00000000  .B .............
 0ba0 01300000 00000000 d8422000 00000000  .0.......B .....
 0bb0 08000000 00000000 0a300000 00000000  .........0......
 0bc0 e0422000 00000000 08000000 00000000  .B .............
 0bd0 25300000 00000000 e8422000 00000000  %0.......B .....
 0be0 08000000 00000000 2e300000 00000000  .........0......
 0bf0 f0422000 00000000 08000000 00000000  .B .............
 0c00 49300000 00000000 f8422000 00000000  I0.......B .....
 0c10 08000000 00000000 52300000 00000000  ........R0......
 0c20 00432000 00000000 08000000 00000000  .C .............
 0c30 6d300000 00000000 08432000 00000000  m0.......C .....
 0c40 08000000 00000000 76300000 00000000  ........v0......
 0c50 10432000 00000000 08000000 00000000  .C .............
 0c60 91300000 00000000 18432000 00000000  .0.......C .....
 0c70 08000000 00000000 9a300000 00000000  .........0......
 0c80 20432000 00000000 08000000 00000000   C .............
 0c90 b5300000 00000000 28432000 00000000  .0......(C .....
 0ca0 08000000 00000000 be300000 00000000  .........0......
 0cb0 d83f2000 00000000 06000000 04000000  .? .............
 0cc0 00000000 00000000 e03f2000 00000000  .........? .....
 0cd0 06000000 0c000000 00000000 00000000  ................
 0ce0 e83f2000 00000000 06000000 11000000  .? .............
 0cf0 00000000 00000000 f03f2000 00000000  .........? .....
 0d00 06000000 1b000000 00000000 00000000  ................
 0d10 f83f2000 00000000 06000000 1d000000  .? .............
 0d20 00000000 00000000 80462000 00000000  .........F .....
 0d30 05000000 21000000 00000000 00000000  ....!...........
 0d40 90462000 00000000 05000000 22000000  .F ........."...
 0d50 00000000 00000000 a0462000 00000000  .........F .....
 0d60 05000000 23000000 00000000 00000000  ....#...........
Contents of section .rela.plt:
 0d70 003f2000 00000000 07000000 01000000  .? .............
 0d80 00000000 00000000 083f2000 00000000  .........? .....
 0d90 07000000 02000000 00000000 00000000  ................
 0da0 103f2000 00000000 07000000 03000000  .? .............
 0db0 00000000 00000000 183f2000 00000000  .........? .....
 0dc0 07000000 05000000 00000000 00000000  ................
 0dd0 203f2000 00000000 07000000 06000000   ? .............
 0de0 00000000 00000000 283f2000 00000000  ........(? .....
 0df0 07000000 07000000 00000000 00000000  ................
 0e00 303f2000 00000000 07000000 08000000  0? .............
 0e10 00000000 00000000 383f2000 00000000  ........8? .....
 0e20 07000000 09000000 00000000 00000000  ................
 0e30 403f2000 00000000 07000000 0a000000  @? .............
 0e40 00000000 00000000 483f2000 00000000  ........H? .....
 0e50 07000000 0b000000 00000000 00000000  ................
 0e60 503f2000 00000000 07000000 0d000000  P? .............
 0e70 00000000 00000000 583f2000 00000000  ........X? .....
 0e80 07000000 0e000000 00000000 00000000  ................
 0e90 603f2000 00000000 07000000 0f000000  `? .............
 0ea0 00000000 00000000 683f2000 00000000  ........h? .....
 0eb0 07000000 10000000 00000000 00000000  ................
 0ec0 703f2000 00000000 07000000 12000000  p? .............
 0ed0 00000000 00000000 783f2000 00000000  ........x? .....
 0ee0 07000000 13000000 00000000 00000000  ................
 0ef0 803f2000 00000000 07000000 14000000  .? .............
 0f00 00000000 00000000 883f2000 00000000  .........? .....
 0f10 07000000 15000000 00000000 00000000  ................
 0f20 903f2000 00000000 07000000 16000000  .? .............
 0f30 00000000 00000000 983f2000 00000000  .........? .....
 0f40 07000000 17000000 00000000 00000000  ................
 0f50 a03f2000 00000000 07000000 18000000  .? .............
 0f60 00000000 00000000 a83f2000 00000000  .........? .....
 0f70 07000000 19000000 00000000 00000000  ................
 0f80 b03f2000 00000000 07000000 1a000000  .? .............
 0f90 00000000 00000000 b83f2000 00000000  .........? .....
 0fa0 07000000 1c000000 00000000 00000000  ................
 0fb0 c03f2000 00000000 07000000 1e000000  .? .............
 0fc0 00000000 00000000 c83f2000 00000000  .........? .....
 0fd0 07000000 1f000000 00000000 00000000  ................
 0fe0 d03f2000 00000000 07000000 20000000  .? ......... ...
 0ff0 00000000 00000000                    ........        
Contents of section .init:
 0ff8 4883ec08 488b05e5 2f200048 85c07402  H...H.../ .H..t.
 1008 ffd04883 c408c3                      ..H....         
Contents of section .plt:
 1010 ff35da2e 2000ff25 dc2e2000 0f1f4000  .5.. ..%.. ...@.
 1020 ff25da2e 20006800 000000e9 e0ffffff  .%.. .h.........
 1030 ff25d22e 20006801 000000e9 d0ffffff  .%.. .h.........
 1040 ff25ca2e 20006802 000000e9 c0ffffff  .%.. .h.........
 1050 ff25c22e 20006803 000000e9 b0ffffff  .%.. .h.........
 1060 ff25ba2e 20006804 000000e9 a0ffffff  .%.. .h.........
 1070 ff25b22e 20006805 000000e9 90ffffff  .%.. .h.........
 1080 ff25aa2e 20006806 000000e9 80ffffff  .%.. .h.........
 1090 ff25a22e 20006807 000000e9 70ffffff  .%.. .h.....p...
 10a0 ff259a2e 20006808 000000e9 60ffffff  .%.. .h.....`...
 10b0 ff25922e 20006809 000000e9 50ffffff  .%.. .h.....P...
 10c0 ff258a2e 2000680a 000000e9 40ffffff  .%.. .h.....@...
 10d0 ff25822e 2000680b 000000e9 30ffffff  .%.. .h.....0...
 10e0 ff257a2e 2000680c 000000e9 20ffffff  .%z. .h..... ...
 10f0 ff25722e 2000680d 000000e9 10ffffff  .%r. .h.........
 1100 ff256a2e 2000680e 000000e9 00ffffff  .%j. .h.........
 1110 ff25622e 2000680f 000000e9 f0feffff  .%b. .h.........
 1120 ff255a2e 20006810 000000e9 e0feffff  .%Z. .h.........
 1130 ff25522e 20006811 000000e9 d0feffff  .%R. .h.........
 1140 ff254a2e 20006812 000000e9 c0feffff  .%J. .h.........
 1150 ff25422e 20006813 000000e9 b0feffff  .%B. .h.........
 1160 ff253a2e 20006814 000000e9 a0feffff  .%:. .h.........
 1170 ff25322e 20006815 000000e9 90feffff  .%2. .h.........
 1180 ff252a2e 20006816 000000e9 80feffff  .%*. .h.........
 1190 ff25222e 20006817 000000e9 70feffff  .%". .h.....p...
 11a0 ff251a2e 20006818 000000e9 60feffff  .%.. .h.....`...
 11b0 ff25122e 20006819 000000e9 50feffff  .%.. .h.....P...
 11c0 ff250a2e 2000681a 000000e9 40feffff  .%.. .h.....@...
Contents of section .plt.got:
 11d0 ff25222e 20006690                    .%". .f.        
Contents of section .text:
 11e0 31ed4989 d15e4889 e24883e4 f050544c  1.I..^H..H...PTL
 11f0 8d05ea18 0000488d 0d731800 00488d3d  ......H..s...H.=
 1200 e6000000 ff15d62d 2000f40f 1f440000  .......- ....D..
 1210 488d3d69 34200055 488d0561 34200048  H.=i4 .UH..a4 .H
 1220 39f84889 e5741948 8b05aa2d 20004885  9.H..t.H...- .H.
 1230 c0740d5d ffe0662e 0f1f8400 00000000  .t.]..f.........
 1240 5dc30f1f 4000662e 0f1f8400 00000000  ]...@.f.........
 1250 488d3d29 34200048 8d352234 20005548  H.=)4 .H.5"4 .UH
 1260 29fe4889 e548c1fe 034889f0 48c1e83f  ).H..H...H..H..?
 1270 4801c648 d1fe7418 488b0571 2d200048  H..H..t.H..q- .H
 1280 85c0740c 5dffe066 0f1f8400 00000000  ..t.]..f........
 1290 5dc30f1f 4000662e 0f1f8400 00000000  ]...@.f.........
 12a0 803d0134 20000075 2f48833d 472d2000  .=.4 ..u/H.=G- .
 12b0 00554889 e5740c48 8b3d4a2d 2000e80d  .UH..t.H.=J- ...
 12c0 ffffffe8 48ffffff c605d933 2000015d  ....H......3 ..]
 12d0 c30f1f80 00000000 f3c3660f 1f440000  ..........f..D..
 12e0 554889e5 5de966ff ffff5383 ff010f84  UH..].f...S.....
 12f0 f8000000 4889f383 ff020f85 21010000  ....H.......!...
 1300 488b7e08 488d35e9 170000e8 30feffff  H.~.H.5.....0...
 1310 48890599 33200048 85c00f84 df000000  H...3 .H........
 1320 e8520600 00488d3d 4c180000 e82ffdff  .R...H.=L..../..
 1330 ff488d3d 80180000 e823fdff ffe84f09  .H.=.....#....O.
 1340 00004889 c7e8fa00 0000e886 0a000048  ..H............H
 1350 8d3d9218 0000e805 fdffffe8 31090000  .=..........1...
 1360 4889c7e8 fc000000 e8680a00 00488d3d  H........h...H.=
 1370 b9170000 e8e7fcff ffe81309 00004889  ..............H.
 1380 c7e84c01 0000e84a 0a000048 8d3db917  ..L....J...H.=..
 1390 0000e8c9 fcffffe8 f5080000 4889c7e8  ............H...
 13a0 1b020000 e82c0a00 00488d3d 68180000  .....,...H.=h...
 13b0 e8abfcff ffe8d708 00004889 c7e86c02  ..........H...l.
 13c0 0000e80e 0a000048 8d3d8c17 0000e88d  .......H.=......
 13d0 fcffffe8 b9080000 4889c7e8 d8020000  ........H.......
 13e0 e8f00900 00b80000 00005bc3 488b059d  ..........[.H...
 13f0 32200048 8905b632 2000e921 ffffff48  2 .H...2 ..!...H
 1400 8b4b0848 8b13488d 35e91600 00bf0100  .K.H..H.5.......
 1410 0000e819 fdffffbf 08000000 e83ffdff  .............?..
 1420 ff488b16 488d35e8 160000bf 01000000  .H..H.5.........
 1430 b8000000 00e8f6fc ffffbf08 000000e8  ................
 1440 1cfdffff 4883ec08 488d35f1 170000e8  ....H...H.5.....
 1450 bc040000 85c07505 4883c408 c3e8b207  ......u.H.......
 1460 0000ebf4 55534883 ec286448 8b042528  ....USH..(dH..%(
 1470 00000048 89442418 31c04889 e6e8ce07  ...H.D$.1.H.....
 1480 0000833c 2400780a bb010000 004889e5  ...<$.x......H..
 1490 eb11e87d 070000eb ef4883c3 014883fb  ...}.....H...H..
 14a0 06741389 d803449d fc39449d 0074eae8  .t....D..9D..t..
 14b0 60070000 ebe3488b 44241864 48330425  `.....H.D$.dH3.%
 14c0 28000000 75074883 c4285b5d c3e8aefb  (...u.H..([]....
 14d0 ffff4883 ec186448 8b042528 00000048  ..H...dH..%(...H
 14e0 89442408 31c0488d 4c240448 89e2488d  .D$.1.H.L$.H..H.
 14f0 35181a00 00e826fc ffff83f8 017e1983  5.....&......~..
 1500 3c240777 4b8b0424 488d1581 17000048  <$.wK..$H......H
 1510 63048248 01d0ffe0 e8f70600 00ebe0b8  c..H............
 1520 8e020000 eb3bb8d7 010000eb 34b87f01  .....;......4...
 1530 0000eb2d b8780300 00eb26b8 68010000  ...-.x....&.h...
 1540 eb1fb84f 020000eb 18b8c901 0000eb11  ...O............
 1550 e8bf0600 00b80000 0000eb05 b8c00000  ................
 1560 00394424 047405e8 a8060000 488b4424  .9D$.t......H.D$
 1570 08644833 04252800 00007505 4883c418  .dH3.%(...u.H...
 1580 c3e8fafa ffffb800 00000085 ff7e0789  .............~..
 1590 f083ff01 7502f3c3 41545553 4189f489  ....u...ATUSA...
 15a0 fb8d7fff e8ddffff ff428d2c 208d7bfe  .........B., .{.
 15b0 4489e6e8 ceffffff 01e85b5d 415cc348  D.........[]A\.H
 15c0 83ec1864 488b0425 28000000 48894424  ...dH..%(...H.D$
 15d0 0831c048 89e1488d 54240448 8d352b19  .1.H..H.T$.H.5+.
 15e0 0000e839 fbffff83 f802750b 8b042483  ...9......u...$.
 15f0 e80283f8 027605e8 18060000 8b3424bf  .....v.......4$.
 1600 07000000 e87dffff ff394424 047405e8  .....}...9D$.t..
 1610 00060000 488b4424 08644833 04252800  ....H.D$.dH3.%(.
 1620 00007505 4883c418 c3e852fa ffff5348  ..u.H.....R...SH
 1630 83ec1048 89fb6448 8b042528 00000048  ...H..dH..%(...H
 1640 89442408 31c0e8a8 02000083 f8067555  .D$.1.........uU
 1650 b8000000 00488d0d 54160000 0fb61403  .....H..T.......
 1660 83e20f0f b6141188 54040148 83c00148  ........T..H...H
 1670 83f80675 e7c64424 0700488d 7c240148  ...u..D$..H.|$.H
 1680 8d350016 0000e885 02000085 c0751d48  .5...........u.H
 1690 8b442408 64483304 25280000 00751448  .D$.dH3.%(...u.H
 16a0 83c4105b c3e86a05 0000eba4 e8630500  ...[..j......c..
 16b0 00ebdce8 c8f9ffff 41554154 55534883  ........AUATUSH.
 16c0 ec686448 8b042528 00000048 89442458  .hdH..%(...H.D$X
 16d0 31c04989 e44c89e6 e8730500 0041bd00  1.I..L...s...A..
 16e0 000000eb 25e82a05 0000eb2d 83c30183  ....%.*....-....
 16f0 fb057f12 4863c38b 04843945 0075ede8  ....Hc....9E.u..
 1700 10050000 ebe64983 c4044c89 e5418b04  ......I...L..A..
 1710 2483e801 83f80577 cc4183c5 014183fd  $......w.A...A..
 1720 06743544 89ebebcc 488b5208 83c00139  .t5D....H.R....9
 1730 c875f548 8954f420 4883c601 4883fe06  .u.H.T. H...H...
 1740 741d8b0c b4b80100 0000488d 15cf2a20  t.........H...* 
 1750 0083f901 7fd2ebdb be000000 00ebe348  ...............H
 1760 8b5c2420 488b4424 28488943 08488b54  .\$ H.D$(H.C.H.T
 1770 24304889 5008488b 44243848 89420848  $0H.P.H.D$8H.B.H
 1780 8b542440 48895008 488b4424 48488942  .T$@H.P.H.D$HH.B
 1790 0848c740 08000000 00bd0500 0000eb09  .H.@............
 17a0 488b5b08 83ed0174 11488b43 088b0039  H.[....t.H.C...9
 17b0 037dede8 5c040000 ebe6488b 44245864  .}..\.....H.D$Xd
 17c0 48330425 28000000 750b4883 c4685b5d  H3.%(...u.H..h[]
 17d0 415c415d c3e8a6f8 ffff4885 ff743448  A\A]......H..t4H
 17e0 83ec088b 1739f27f 0eb80000 000039f2  .....9........9.
 17f0 75124883 c408c348 8b7f08e8 daffffff  u.H....H........
 1800 01c0ebee 488b7f10 e8cdffff ff8d4400  ....H.........D.
 1810 01ebdfb8 ffffffff c353e872 040000ba  .........S.r....
 1820 0a000000 be000000 004889c7 e8cff8ff  .........H......
 1830 ff4889c3 8d40ff3d e8030000 772b89de  .H...@.=....w+..
 1840 488d3df9 282000e8 8effffff 83f80374  H.=.( .........t
 1850 05e8be03 0000488d 3d031400 00e8fef7  ......H.=.......
 1860 ffffe86e 0500005b c3e8a603 0000ebce  ...n...[........
 1870 4883ec08 488d3d45 140000e8 e0f7ffff  H...H.=E........
 1880 bf030000 00e806f9 ffff488d 35f81500  ..........H.5...
 1890 00bf0100 0000b800 000000e8 90f8ffff  ................
 18a0 488b3dd9 2d2000e8 64f8ffff bf010000  H.=.- ..d.......
 18b0 00e8daf8 ffff488d 3dd41500 00e89ef7  ......H.=.......
 18c0 ffffbf10 000000e8 94f8ffff 4883ec08  ............H...
 18d0 4889fa48 8d35bf15 0000bf01 000000b8  H..H.5..........
 18e0 00000000 e847f8ff ffbf0800 0000e86d  .....G.........m
 18f0 f8ffff80 3f007412 4889fa48 83c20189  ....?.t.H..H....
 1900 d029f880 3a0075f3 f3c3b800 000000c3  .)..:.u.........
 1910 41545553 4889fb48 89f5e8d4 ffffff41  ATUSH..H.......A
 1920 89c44889 efe8c9ff ffffba01 00000041  ..H............A
 1930 39c47407 89d05b5d 415cc30f b60384c0  9.t...[]A\......
 1940 74273a45 00752948 83c30148 83c5010f  t':E.u)H...H....
 1950 b60384c0 740c3845 0074ecba 01000000  ....t.8E.t......
 1960 ebd2ba00 000000eb cbba0000 0000ebc4  ................
 1970 ba010000 00ebbd55 534881ec 58200000  .......USH..X ..
 1980 64488b04 25280000 00488984 24482000  dH..%(...H..$H .
 1990 0031c048 8d35d6fe ffffbf02 000000e8  .1.H.5..........
 19a0 2cf7ffff 4889e7be 40000000 e89ff7ff  ,...H...@.......
 19b0 ff85c075 45488b3d c4282000 488d1dc5  ...uEH.=.( .H...
 19c0 28200048 89e54885 ff741948 89eee85d  ( .H..H..t.H...]
 19d0 f6ffff85 c0745e48 83c30848 8b7bf848  .....t^H...H.{.H
 19e0 85ff75e7 488d3d45 130000e8 70f6ffff  ..u.H.=E....p...
 19f0 bf080000 00e866f7 ffff488d 3df71200  ......f...H.=...
 1a00 00e85af6 ffffbf08 000000e8 50f7ffff  ..Z.........P...
 1a10 488d5424 40488d35 8e140000 bf010000  H.T$@H.5........
 1a20 00b80000 0000e805 f7ffffbf 08000000  ................
 1a30 e82bf7ff ff488d7c 2440e8b2 0d000085  .+...H.|$@......
 1a40 c078cd48 8b842448 20000064 48330425  .x.H..$H ..dH3.%
 1a50 28000000 750a4881 c4582000 005b5dc3  (...u.H..X ..[].
 1a60 e81bf6ff fff3c355 534883ec 084889fd  .......USH...H..
 1a70 0fb65d00 84db741e e823f7ff ff4883c5  ..]...t..#...H..
 1a80 01480fbe db488b00 f6445801 2075e1b8  .H...H...DX. u..
 1a90 00000000 eb05b801 00000048 83c4085b  ...........H...[
 1aa0 5dc35553 4883ec08 488d2d11 2c200048  ].USH...H.-., .H
 1ab0 6305f62b 2000488d 3c8048c1 e7044801  c..+ .H.<.H...H.
 1ac0 ef488b15 e82b2000 be500000 00e8eef5  .H...+ ..P......
 1ad0 ffff4889 c34885c0 740c4889 c7e885ff  ..H..H..t.H.....
 1ae0 ffff85c0 75c94889 d84883c4 085b5dc3  ....u.H..H...[].
 1af0 534881ec 10400000 4189f864 488b0425  SH...@..A..dH..%
 1b00 28000000 48898424 08400000 31c08b35  (...H..$.@..1..5
 1b10 982b2000 8d46ff48 98488d14 8048c1e2  .+ ..F.H.H...H..
 1b20 04488d05 982b2000 4801c248 c7c1ffff  .H...+ .H..H....
 1b30 ffffb800 00000048 89d7f2ae 4889c848  .......H....H..H
 1b40 f7d04883 c063483d 00200000 0f878600  ..H..cH=. ......
 1b50 00004585 c04c8d0d 68130000 488d0569  ..E..L..h...H..i
 1b60 1300004c 0f44c848 89e35256 448b05c9  ...L.D.H..RVD...
 1b70 25200048 8d0d5b13 0000ba00 200000be  % .H..[..... ...
 1b80 01000000 4889dfb8 00000000 e81ff6ff  ....H...........
 1b90 ff4c8d84 24102000 00b90000 00004889  .L..$. .......H.
 1ba0 da488d35 78252000 488d3d86 252000e8  .H.5x% .H.=.% ..
 1bb0 460e0000 4883c410 85c0783c 488b8424  F...H.....x<H..$
 1bc0 08400000 64483304 25280000 00754048  .@..dH3.%(...u@H
 1bd0 81c41040 00005bc3 488d3589 110000bf  ...@..[.H.5.....
 1be0 01000000 b8000000 00e842f5 ffffbf08  ..........B.....
 1bf0 000000e8 68f5ffff 488dbc24 00200000  ....h...H..$. ..
 1c00 e85bf4ff ffbf0000 0000e851 f5ffffe8  .[.........Q....
 1c10 6cf4ffff 4883ec08 488d3dc2 120000e8  l...H...H.=.....
 1c20 3cf4ffff 488d3dbf 120000e8 30f4ffff  <...H.=.....0...
 1c30 bf000000 00e8b6fe ffff488d 3d4f1100  ..........H.=O..
 1c40 00e81af4 ffffbf08 000000e8 10f5ffff  ................
 1c50 4883ec08 4889f248 8d4e0448 8d461450  H...H..H.N.H.F.P
 1c60 488d4610 504c8d4e 0c4c8d46 08488d35  H.F.PL.N.L.F.H.5
 1c70 8d120000 b8000000 00e8a2f4 ffff4883  ..............H.
 1c80 c41083f8 057e0548 83c408c3 e883ffff  .....~.H........
 1c90 ff4883ec 08b80000 0000e803 feffff48  .H.............H
 1ca0 85c0746f 8b35022a 20004863 c6488d14  ..to.5.* .Hc.H..
 1cb0 8048c1e2 04488d05 042a2000 4801c248  .H...H...* .H..H
 1cc0 c7c1ffff ffffb800 00000048 89d7f2ae  ...........H....
 1cd0 48f7d148 83e90183 f94e0f8f ab000000  H..H.....N......
 1ce0 83e90148 63c94863 c6488d04 8048c1e0  ...Hc.Hc.H...H..
 1cf0 044889c7 488d05c5 29200048 01f8c604  .H..H...) .H....
 1d00 080083c6 018935a1 29200048 89d04883  ......5.) .H..H.
 1d10 c408c348 8b057629 20004839 058f2920  ...H..v) .H9..) 
 1d20 00741b48 8d3d0712 0000e8f1 f2ffff48  .t.H.=.........H
 1d30 85c07420 bf000000 00e822f4 ffff488d  ..t ......"...H.
 1d40 3dce1100 00e816f3 ffffbf08 000000e8  =...............
 1d50 0cf4ffff 488b0535 29200048 89054e29  ....H..5) .H..N)
 1d60 2000b800 000000e8 36fdffff 4885c00f   .......6...H...
 1d70 852fffff ff488d3d 97110000 e8dff2ff  ./...H.=........
 1d80 ffbf0000 0000e8d5 f3ffff48 8d3daa11  ...........H.=..
 1d90 0000e8c9 f2ffff8b 050f2920 008d5001  ..........) ..P.
 1da0 89150629 20004898 486bc050 488d150d  ...) .H.Hk.PH...
 1db0 29200048 be2a2a2a 7472756e 6348bf61  ) .H.***truncH.a
 1dc0 7465642a 2a2a0048 89340248 897c0208  ted***.H.4.H.|..
 1dd0 e83ffeff ff4883ec 7864488b 04252800  .?...H..xdH..%(.
 1de0 00004889 44246831 c0bf0100 0000e8fd  ..H.D$h1........
 1df0 fcffff83 3db22820 00067419 488b4424  ....=.( ..t.H.D$
 1e00 68644833 04252800 00000f85 84000000  hdH3.%(.........
 1e10 4883c478 c3488d4c 240c488d 5424084c  H..x.H.L$.H.T$.L
 1e20 8d442410 488d352c 11000048 8d3d7e29  .D$.H.5,...H.=~)
 1e30 2000b800 000000e8 e4f2ffff 83f80374   ..............t
 1e40 1a488d3d d00f0000 e813f2ff ff488d3d  .H.=.........H.=
 1e50 f40f0000 e807f2ff ffeba148 8d7c2410  ...........H.|$.
 1e60 488d35f9 100000e8 a4faffff 85c075d1  H.5...........u.
 1e70 488d3d41 0f0000e8 e4f1ffff 488d3d5d  H.=A........H.=]
 1e80 0f0000e8 d8f1ffff b8000000 00e887f9  ................
 1e90 ffffebad e8e7f1ff ff4883ec 08b90000  .........H......
 1ea0 0000488d 15371200 00be0100 0000488b  ..H..7........H.
 1eb0 3deb2720 00b80000 0000e8c1 f2ffffbf  =.' ............
 1ec0 01000000 e897f2ff ff415641 55415455  .........AVAUATU
 1ed0 534889fb 4989f449 89d641bd 01000000  SH..I..I..A.....
 1ee0 488d6f10 4883fa01 770ceb60 e84ff1ff  H.o.H...w..`.O..
 1ef0 ff833804 75678b43 0485c07f 20ba0020  ..8.ug.C.... .. 
 1f00 00004889 ee8b3be8 a4f1ffff 89430485  ..H...;......C..
 1f10 c078d985 c0744f48 896b08eb d9488b53  .x...tOH.k...H.S
 1f20 080fb60a 4883c201 48895308 83e80189  ....H...H.S.....
 1f30 43044983 c4014188 4c24ff80 f90a740c  C.I...A.L$....t.
 1f40 4183c501 4963c54c 39f072aa 41c60424  A...Ic.L9.r.A..$
 1f50 004963c5 5b5d415c 415d415e c348c7c0  .Ic.[]A\A]A^.H..
 1f60 ffffffff eb05b800 00000085 c0750db8  .............u..
 1f70 00000000 4183fd01 75d2ebd8 48c7c0ff  ....A...u...H...
 1f80 ffffffeb cf415741 56415541 54555348  .....AWAVAUATUSH
 1f90 81ec78a0 00004989 fd89f548 89542408  ..x...I....H.T$.
 1fa0 48894c24 104c8944 24204c89 4c241848  H.L$.L.D$ L.L$.H
 1fb0 8b9c24b0 a000004c 8bbc24b8 a0000064  ..$....L..$....d
 1fc0 488b0425 28000000 48898424 68a00000  H..%(...H..$h...
 1fd0 31c0c744 243c0000 0000ba00 000000be  1..D$<..........
 1fe0 01000000 bf020000 00e8d2f1 ffff85c0  ................
 1ff0 0f883501 00004189 c44c89ef e8dff0ff  ..5...A..L......
 2000 ff4885c0 0f847101 00004c8d 6c244048  .H....q...L.l$@H
 2010 c7442442 00000000 c744244a 00000000  .D$B.....D$J....
 2020 66c74424 4e000066 c7442440 02004863  f.D$N..f.D$@..Hc
 2030 5014488b 4018488d 7c2444b9 0c000000  P.H.@.H.|$D.....
 2040 488b30e8 a8f0ffff 66c1cd08 66896c24  H.0.....f...f.l$
 2050 42ba1000 00004c89 ee4489e7 e80ff1ff  B.....L..D......
 2060 ff85c00f 887d0100 0049c7c1 ffffffff  .....}...I......
 2070 b8000000 004c89c9 4889dff2 ae4889ce  .....L..H....H..
 2080 48f7d64c 89c9488b 7c2408f2 ae4989c8  H..L..H.|$...I..
 2090 4c89c948 8b7c2410 f2ae4889 ca48f7d2  L..H.|$...H..H..
 20a0 4c89c948 8b7c2418 f2ae4c29 c24829ca  L..H.|$...L).H).
 20b0 488d4476 fd488d44 027b483d 00200000  H.Dv.H.D.{H=. ..
 20c0 0f877d01 0000488d 94246040 0000b900  ..}...H..$`@....
 20d0 040000b8 00000000 4889d7f3 48ab48c7  ........H...H.H.
 20e0 c1ffffff ff4889df f2ae4889 ca48f7d2  .....H....H..H..
 20f0 4889d148 83e90185 c90f843f 0600008d  H..H.......?....
 2100 41ff4c8d 74030148 8dac2460 40000048  A.L.t..H..$`@..H
 2110 8d842460 80000048 89442428 49bdd9ff  ..$`...H.D$(I...
 2120 00000000 2000e9a6 01000048 b8457272  .... ......H.Err
 2130 6f723a20 4348ba6c 69656e74 20756e49  or: CH.lient unI
 2140 89074989 570848b8 61626c65 20746f20  ..I.W.H.able to 
 2150 48ba6372 65617465 20734989 47104989  H.create sI.G.I.
 2160 571841c7 47206f63 6b656641 c7472474  W.A.G ockefA.G$t
 2170 00b8ffff ffffe99a 04000048 b8457272  ...........H.Err
 2180 6f723a20 4448ba4e 53206973 20756e49  or: DH.NS is unI
 2190 89074989 570848b8 61626c65 20746f20  ..I.W.H.able to 
 21a0 48ba7265 736f6c76 65204989 47104989  H.resolve I.G.I.
 21b0 571848b8 73657276 65722061 49894720  W.H.server aI.G 
 21c0 41c74728 64647265 6641c747 2c737341  A.G(ddrefA.G,ssA
 21d0 c6472e00 4489e7e8 c4eeffff b8ffffff  .G..D...........
 21e0 ffe92f04 000048b8 4572726f 723a2055  ../...H.Error: U
 21f0 48ba6e61 626c6520 746f4989 07498957  H.nable toI..I.W
 2200 0848b820 636f6e6e 65637448 ba20746f  .H. connectH. to
 2210 20746865 20498947 10498957 1841c747   the I.G.I.W.A.G
 2220 20736572 766641c7 47246572 41c64726   servfA.G$erA.G&
 2230 004489e7 e867eeff ffb8ffff ffffe9d2  .D...g..........
 2240 03000048 b8457272 6f723a20 5248ba65  ...H.Error: RH.e
 2250 73756c74 20737449 89074989 570848b8  sult stI..I.W.H.
 2260 72696e67 20746f6f 48ba206c 61726765  ring tooH. large
 2270 2e204989 47104989 571848b8 496e6372  . I.G.I.W.H.Incr
 2280 65617365 48ba2053 55424d49 54524989  easeH. SUBMITRI.
 2290 47204989 572848b8 5f4d4158 42554600  G I.W(H._MAXBUF.
 22a0 49894730 4489e7e8 f4edffff b8ffffff  I.G0D...........
 22b0 ffe95f03 0000490f a3c57321 44884500  .._...I...s!D.E.
 22c0 488d6d01 4883c301 4c39f30f 846d0400  H.m.H...L9...m..
 22d0 00440fb6 03418d40 d63c3576 d94489c0  .D...A.@.<5v.D..
 22e0 83e0df83 e8413c19 76d24180 f8207460  .....A<.v.A.. t`
 22f0 418d40e0 3c5f760a 4180f809 0f85af03  A.@.<_v.A.......
 2300 0000450f b6c0488d 0dab0e00 00ba0800  ..E...H.........
 2310 0000be01 00000048 8b7c2428 b8000000  .......H.|$(....
 2320 00e88aee ffff0fb6 84246080 00008845  .........$`....E
 2330 000fb684 24618000 00884501 0fb68424  ....$a....E....$
 2340 62800000 88450248 8d6d03e9 74ffffff  b....E.H.m..t...
 2350 c645002b 488d6d01 e967ffff ff4901c5  .E.+H.m..g...I..
 2360 4829c574 264889ea 4c89ee44 89e7e8fd  H).t&H..L..D....
 2370 ecffff48 85c07fe5 e8c3ecff ff833804  ...H..........8.
 2380 0f853101 00004c89 f0ebd248 85db0f88  ..1...L....H....
 2390 23010000 44896424 50c74424 54000000  #...D.d$P.D$T...
 23a0 00488d7c 2450488d 47104889 44245848  .H.|$PH.G.H.D$XH
 23b0 8db42460 200000ba 00200000 e808fbff  ..$` .... ......
 23c0 ff4885c0 0f8e4c01 0000488d 4c243c48  .H....L...H.L$<H
 23d0 8d942460 60000048 8dbc2460 2000004c  ..$``..H..$` ..L
 23e0 8d842460 80000048 8d35d10d 0000b800  ..$`...H.5......
 23f0 000000e8 28edffff 448b4424 3c4181f8  ....(...D.D$<A..
 2400 c8000000 0f858001 0000488d 9c246020  ..........H..$` 
 2410 0000488d 2db70d00 004c8d6c 2450b903  ..H.-....L.l$P..
 2420 00000048 89de4889 eff3a60f 97c01c00  ...H..H.........
 2430 84c00f84 89010000 ba002000 004889de  .......... ..H..
 2440 4c89efe8 81faffff 4885c07f d148b845  L.......H....H.E
 2450 72726f72 3a204348 ba6c6965 6e742075  rror: CH.lient u
 2460 6e498907 49895708 48b86162 6c652074  nI..I.W.H.able t
 2470 6f2048ba 72656164 20686561 49894710  o H.read heaI.G.
 2480 49895718 48b86465 72732066 726f48ba  I.W.H.ders froH.
 2490 6d207365 72766572 49894720 49895728  m serverI.G I.W(
 24a0 41c64730 004489e7 e8f3ebff ffb8ffff  A.G0.D..........
 24b0 ffffe95e 01000048 b8457272 6f723a20  ...^...H.Error: 
 24c0 4348ba6c 69656e74 20756e49 89074989  CH.lient unI..I.
 24d0 570848b8 61626c65 20746f20 48ba7772  W.H.able to H.wr
 24e0 69746520 746f4989 47104989 571848b8  ite toI.G.I.W.H.
 24f0 20746865 20736572 49894720 41c74728   the serI.G A.G(
 2500 76657200 4489e7e8 94ebffff b8ffffff  ver.D...........
 2510 ffe9ff00 000048b8 4572726f 723a2043  ......H.Error: C
 2520 48ba6c69 656e7420 756e4989 07498957  H.lient unI..I.W
 2530 0848b861 626c6520 746f2048 ba726561  .H.able to H.rea
 2540 64206669 72498947 10498957 1848b873  d firI.G.I.W.H.s
 2550 74206865 61646548 ba722066 726f6d20  t headeH.r from 
 2560 73498947 20498957 2841c747 30657276  sI.G I.W(A.G0erv
 2570 656641c7 47347200 4489e7e8 20ebffff  efA.G4r.D... ...
 2580 b8ffffff ffe98b00 00004c8d 8c246080  ..........L..$`.
 2590 0000488d 0d6f0b00 0048c7c2 ffffffff  ..H..o...H......
 25a0 be010000 004c89ff b8000000 00e8feeb  .....L..........
 25b0 ffff4489 e7e8e6ea ffffb8ff ffffffeb  ..D.............
 25c0 54488db4 24602000 00488d7c 2450ba00  TH..$` ..H.|$P..
 25d0 200000e8 f1f8ffff 4885c07e 61488db4   .......H..~aH..
 25e0 24602000 004c89ff e863eaff ff4489e7  $` ..L...c...D..
 25f0 e8abeaff ffb90300 0000488d 3dd20b00  ..........H.=...
 2600 004c89fe f3a60f97 c01c0084 c00f95c0  .L..............
 2610 0fb6c0f7 d8488b94 2468a000 00644833  .....H..$h...dH3
 2620 14252800 00000f85 95010000 4881c478  .%(.........H..x
 2630 a000005b 5d415c41 5d415e41 5fc348b8  ...[]A\A]A^A_.H.
 2640 4572726f 723a2043 48ba6c69 656e7420  Error: CH.lient 
 2650 756e4989 07498957 0848b861 626c6520  unI..I.W.H.able 
 2660 746f2048 ba726561 64207374 61498947  to H.read staI.G
 2670 10498957 1848b874 7573206d 65737348  .I.W.H.tus messH
 2680 ba616765 2066726f 6d498947 20498957  .age fromI.G I.W
 2690 2848b820 73657276 65720049 89473044  (H. server.I.G0D
 26a0 89e7e8f9 e9ffffb8 ffffffff e964ffff  .............d..
 26b0 ff48b845 72726f72 3a205248 ba657375  .H.Error: RH.esu
 26c0 6c742073 74498907 49895708 48b87269  lt stI..I.W.H.ri
 26d0 6e672063 6f6e48ba 7461696e 7320616e  ng conH.tains an
 26e0 49894710 49895718 48b82069 6c6c6567  I.G.I.W.H. illeg
 26f0 616c48ba 206f7220 756e7072 49894720  alH. or unprI.G 
 2700 49895728 48b8696e 7461626c 652048ba  I.W(H.intable H.
 2710 63686172 61637465 49894730 49895738  characteI.G0I.W8
 2720 6641c747 40722e41 c6474200 4489e7e8  fA.G@r.A.GB.D...
 2730 6ce9ffff b8ffffff ffe9d7fe ffff488d  l.............H.
 2740 9c246020 00004883 ec08488d 84246840  .$` ..H...H..$h@
 2750 000050ff 742428ff 7424384c 8b4c2430  ..P.t$(.t$8L.L$0
 2760 4c8b4424 28488d0d cc090000 ba002000  L.D$(H........ .
 2770 00be0100 00004889 dfb80000 0000e82d  ......H........-
 2780 eaffff48 c7c1ffff ffffb800 00000048  ...H...........H
 2790 89dff2ae 48f7d148 89cb4883 eb014883  ....H..H..H...H.
 27a0 c4204889 dd4c8dac 24602000 0041be00  . H..L..$` ..A..
 27b0 00000048 85db0f85 a9fbffff e9d3fbff  ...H............
 27c0 ffe8bae8 ffff85ff 74255389 fb488d35  ........t%S..H.5
 27d0 c5f6ffff bf0e0000 00e8f2e8 ffff85db  ................
 27e0 bf000000 000f49fb e8a3e8ff ff5bc3f3  ......I......[..
 27f0 c3415455 534883ec 204989fc 64488b04  .ATUSH.. I..dH..
 2800 25280000 00488944 241831c0 be010000  %(...H.D$.1.....
 2810 00bf0d00 0000e8b5 e8ffffbe 01000000  ................
 2820 bf1d0000 00e8a6e8 ffffbe01 000000bf  ................
 2830 1d000000 e897e8ff ffba0000 0000be01  ................
 2840 000000bf 02000000 e873e9ff ff85c00f  .........s......
 2850 88a30000 0089c348 8d3d0d07 0000e87d  .......H.=.....}
 2860 e8ffff48 85c00f84 df000000 4889e548  ...H........H..H
 2870 c7442402 00000000 c7450a00 00000066  .D$......E.....f
 2880 c7450e00 0066c704 24020048 63501448  .E...f..$..HcP.H
 2890 8b401848 8d7d04b9 0c000000 488b30e8  .@.H.}......H.0.
 28a0 4ce8ffff 66c74424 023b6eba 10000000  L...f.D$.;n.....
 28b0 4889ee89 dfe8b6e8 ffff85c0 0f88fb00  H...............
 28c0 000089df e8d7e7ff ff6641c7 04244f4b  .........fA..$OK
 28d0 41c64424 0200b800 00000048 8b4c2418  A.D$.......H.L$.
 28e0 6448330c 25280000 000f8506 01000048  dH3.%(.........H
 28f0 83c4205b 5d415cc3 48b84572 726f723a  .. []A\.H.Error:
 2900 204348ba 6c69656e 7420756e 49890424   CH.lient unI..$
 2910 49895424 0848b861 626c6520 746f2048  I.T$.H.able to H
 2920 ba637265 61746520 73498944 24104989  .create sI.D$.I.
 2930 54241841 c7442420 6f636b65 6641c744  T$.A.D$ ockefA.D
 2940 24247400 b8ffffff ffeb9048 b8457272  $$t........H.Err
 2950 6f723a20 4448ba4e 53206973 20756e49  or: DH.NS is unI
 2960 89042449 89542408 48b86162 6c652074  ..$I.T$.H.able t
 2970 6f2048ba 7265736f 6c766520 49894424  o H.resolve I.D$
 2980 10498954 241848b8 73657276 65722061  .I.T$.H.server a
 2990 49894424 2041c744 24286464 72656641  I.D$ A.D$(ddrefA
 29a0 c744242c 737341c6 44242e00 89dfe8ed  .D$,ssA.D$......
 29b0 e6ffffb8 ffffffff e91effff ff4c8d05  .............L..
 29c0 a7050000 488d0dc5 07000048 c7c2ffff  ....H......H....
 29d0 ffffbe01 0000004c 89e7b800 000000e8  .......L........
 29e0 cce7ffff 89dfe8b5 e6ffffb8 ffffffff  ................
 29f0 e9e6feff ffe886e6 ffff534c 89c385c9  ..........SL....
 2a00 75174885 ff740580 3f007533 66c7034f  u.H..t..?.u3f..O
 2a10 4bc64302 0089c85b c3488d35 b6070000  K.C....[.H.5....
 2a20 bf010000 00b80000 0000e801 e7ffff66  ...............f
 2a30 c7034f4b c6430200 b8000000 00ebd841  ..OK.C.........A
 2a40 50524c8d 0da40700 004989f0 4889f948  PRL......I..H..H
 2a50 8d15a007 0000be6e 3b000048 8d3d0905  .......n;..H.=..
 2a60 0000e81e f5ffff48 83c410eb aa0f1f00  .......H........
 2a70 41574156 4989d741 5541544c 8d256612  AWAVI..AUATL.%f.
 2a80 20005548 8d2d6612 20005341 89fd4989   .UH.-f. .SA..I.
 2a90 f64c29e5 4883ec08 48c1fd03 e857e5ff  .L).H...H....W..
 2aa0 ff4885ed 742031db 0f1f8400 00000000  .H..t 1.........
 2ab0 4c89fa4c 89f64489 ef41ff14 dc4883c3  L..L..D..A...H..
 2ac0 014839dd 75ea4883 c4085b5d 415c415d  .H9.u.H...[]A\A]
 2ad0 415e415f c390662e 0f1f8400 00000000  A^A_..f.........
 2ae0 f3c3                                 ..              
Contents of section .fini:
 2ae4 4883ec08 4883c408 c3                 H...H....       
Contents of section .rodata:
 2af0 01000200 72002573 3a204572 726f723a  ....r.%s: Error:
 2b00 20436f75 6c646e27 74206f70 656e2025   Couldn't open %
 2b10 730a0055 73616765 3a202573 205b3c69  s..Usage: %s [<i
 2b20 6e707574 5f66696c 653e5d0a 00546861  nput_file>]..Tha
 2b30 74277320 6e756d62 65722032 2e20204b  t's number 2.  K
 2b40 65657020 676f696e 67210048 616c6677  eep going!.Halfw
 2b50 61792074 68657265 2100476f 6f642077  ay there!.Good w
 2b60 6f726b21 20204f6e 20746f20 74686520  ork!  On to the 
 2b70 6e657874 2e2e2e00 57656c63 6f6d6520  next....Welcome 
 2b80 746f206d 79206669 656e6469 7368206c  to my fiendish l
 2b90 6974746c 6520626f 6d622e20 596f7520  ittle bomb. You 
 2ba0 68617665 20362070 68617365 73207769  have 6 phases wi
 2bb0 74680000 00000000 77686963 6820746f  th......which to
 2bc0 20626c6f 7720796f 75727365 6c662075   blow yourself u
 2bd0 702e2048 61766520 61206e69 63652064  p. Have a nice d
 2be0 61792100 00000000 50686173 65203120  ay!.....Phase 1 
 2bf0 64656675 7365642e 20486f77 2061626f  defused. How abo
 2c00 75742074 6865206e 65787420 6f6e653f  ut the next one?
 2c10 00000000 00000000 536f2079 6f752067  ........So you g
 2c20 6f742074 68617420 6f6e652e 20205472  ot that one.  Tr
 2c30 79207468 6973206f 6e652e00 00000000  y this one......
 2c40 49206361 6e207365 65205275 73736961  I can see Russia
 2c50 2066726f 6d206d79 20686f75 73652100   from my house!.
 2c60 576f7721 20596f75 27766520 64656675  Wow! You've defu
 2c70 73656420 74686520 73656372 65742073  sed the secret s
 2c80 74616765 2100666c 79657273 00000000  tage!.flyers....
 2c90 cce8ffff 8fe8ffff 96e8ffff 9de8ffff  ................
 2ca0 a4e8ffff abe8ffff b2e8ffff b9e8ffff  ................
 2cb0 6d616475 69657273 6e666f74 7662796c  maduiersnfotvbyl
 2cc0 536f2079 6f752074 68696e6b 20796f75  So you think you
 2cd0 2063616e 2073746f 70207468 6520626f   can stop the bo
 2ce0 6d622077 69746820 6374726c 2d632c20  mb with ctrl-c, 
 2cf0 646f2079 6f753f00 496e6974 69616c69  do you?.Initiali
 2d00 7a617469 6f6e2065 72726f72 3a205275  zation error: Ru
 2d10 6e6e696e 67206f6e 20616e20 696c6c65  nning on an ille
 2d20 67616c20 686f7374 205b315d 00000000  gal host [1]....
 2d30 496e6974 69616c69 7a617469 6f6e2065  Initialization e
 2d40 72726f72 3a205275 6e6e696e 67206f6e  rror: Running on
 2d50 20616e20 696c6c65 67616c20 686f7374   an illegal host
 2d60 205b325d 00000000 4552524f 523a2049   [2]....ERROR: I
 2d70 6e707574 20737472 696e6720 69732074  nput string is t
 2d80 6f6f206c 61726765 2e000000 00000000  oo large........
 2d90 596f7572 20696e73 74727563 746f7220  Your instructor 
 2da0 68617320 6265656e 206e6f74 69666965  has been notifie
 2db0 642e0000 00000000 43757273 65732c20  d.......Curses, 
 2dc0 796f7527 76652066 6f756e64 20746865  you've found the
 2dd0 20736563 72657420 70686173 65210000   secret phase!..
 2de0 42757420 66696e64 696e6720 69742061  But finding it a
 2df0 6e642073 6f6c7669 6e672069 74206172  nd solving it ar
 2e00 65207175 69746520 64696666 6572656e  e quite differen
 2e10 742e2e2e 00000000 436f6e67 72617475  t.......Congratu
 2e20 6c617469 6f6e7321 20596f75 27766520  lations! You've 
 2e30 64656675 73656420 74686520 626f6d62  defused the bomb
 2e40 21000000 00000000 596f7572 20696e73  !.......Your ins
 2e50 74727563 746f7220 68617320 6265656e  tructor has been
 2e60 206e6f74 69666965 6420616e 64207769   notified and wi
 2e70 6c6c2076 65726966 7920796f 75722073  ll verify your s
 2e80 6f6c7574 696f6e2e 0057656c 6c2e2e2e  olution..Well...
 2e90 004f4b2e 203a2d29 00496e76 616c6964  .OK. :-).Invalid
 2ea0 20706861 73652573 0a00496e 69746961   phase%s..Initia
 2eb0 6c697a61 74696f6e 20657272 6f723a0a  lization error:.
 2ec0 25730a00 64656675 73656400 6578706c  %s..defused.expl
 2ed0 6f646564 0025643a 25733a25 643a2573  oded.%d:%s:%d:%s
 2ee0 000a424f 4f4d2121 21005468 6520626f  ..BOOM!!!.The bo
 2ef0 6d622068 61732062 6c6f776e 2075702e  mb has blown up.
 2f00 00256420 25642025 64202564 20256420  .%d %d %d %d %d 
 2f10 25640045 72726f72 3a205072 656d6174  %d.Error: Premat
 2f20 75726520 454f4620 6f6e2073 7464696e  ure EOF on stdin
 2f30 00475241 44455f42 4f4d4200 4572726f  .GRADE_BOMB.Erro
 2f40 723a2049 6e707574 206c696e 6520746f  r: Input line to
 2f50 6f206c6f 6e670025 64202564 20257300  o long.%d %d %s.
 2f60 44724576 696c007a 6475007a 64752e62  DrEvil.zdu.zdu.b
 2f70 696e6768 616d746f 6e2e6564 75007a64  inghamton.edu.zd
 2f80 752d7063 007a6475 2e63732e 62696e67  u-pc.zdu.cs.bing
 2f90 68616d74 6f6e2e65 64750062 7261766f  hamton.edu.bravo
 2fa0 00627261 766f2e63 732e6269 6e676861  .bravo.cs.bingha
 2fb0 6d746f6e 2e656475 0072656d 6f746530  mton.edu.remote0
 2fc0 30007265 6d6f7465 30302e63 732e6269  0.remote00.cs.bi
 2fd0 6e676861 6d746f6e 2e656475 0072656d  nghamton.edu.rem
 2fe0 6f746530 31007265 6d6f7465 30312e63  ote01.remote01.c
 2ff0 732e6269 6e676861 6d746f6e 2e656475  s.binghamton.edu
 3000 0072656d 6f746530 32007265 6d6f7465  .remote02.remote
 3010 30322e63 732e6269 6e676861 6d746f6e  02.cs.binghamton
 3020 2e656475 0072656d 6f746530 33007265  .edu.remote03.re
 3030 6d6f7465 30332e63 732e6269 6e676861  mote03.cs.bingha
 3040 6d746f6e 2e656475 0072656d 6f746530  mton.edu.remote0
 3050 34007265 6d6f7465 30342e63 732e6269  4.remote04.cs.bi
 3060 6e676861 6d746f6e 2e656475 0072656d  nghamton.edu.rem
 3070 6f746530 35007265 6d6f7465 30352e63  ote05.remote05.c
 3080 732e6269 6e676861 6d746f6e 2e656475  s.binghamton.edu
 3090 0072656d 6f746530 36007265 6d6f7465  .remote06.remote
 30a0 30362e63 732e6269 6e676861 6d746f6e  06.cs.binghamton
 30b0 2e656475 0072656d 6f746530 37007265  .edu.remote07.re
 30c0 6d6f7465 30372e63 732e6269 6e676861  mote07.cs.bingha
 30d0 6d746f6e 2e656475 00000000 00000000  mton.edu........
 30e0 50726f67 72616d20 74696d65 64206f75  Program timed ou
 30f0 74206166 74657220 25642073 65636f6e  t after %d secon
 3100 64730a00 00000000 4572726f 723a2048  ds......Error: H
 3110 54545020 72657175 65737420 6661696c  TTP request fail
 3120 65642077 69746820 6572726f 72202564  ed with error %d
 3130 3a202573 00000000 47455420 2f25732f  : %s....GET /%s/
 3140 7375626d 6974722e 706c2f3f 75736572  submitr.pl/?user
 3150 69643d25 73267573 65727077 643d2573  id=%s&userpwd=%s
 3160 266c6162 3d257326 72657375 6c743d25  &lab=%s&result=%
 3170 73267375 626d6974 3d737562 6d697420  s&submit=submit 
 3180 48545450 2f312e30 0d0a0d0a 00000000  HTTP/1.0........
 3190 4572726f 723a2055 6e61626c 6520746f  Error: Unable to
 31a0 20636f6e 6e656374 20746f20 73657276   connect to serv
 31b0 65722025 73000000 25252530 32580025  er %s...%%%02X.%
 31c0 73202564 20255b61 2d7a412d 7a205d00  s %d %[a-zA-z ].
 31d0 0d0a004f 4b000a41 55544f52 4553554c  ...OK..AUTORESUL
 31e0 545f5354 52494e47 3d25730a 0070726a  T_STRING=%s..prj
 31f0 332d6631 39006373 61707000           3-f19.csapp.    
Contents of section .eh_frame_hdr:
 31fc 011b033b 18010000 22000000 14deffff  ...;....".......
 320c 64010000 d4dfffff 8c010000 e4dfffff  d...............
 321c 34010000 eee0ffff a4010000 48e2ffff  4...........H...
 322c c4010000 68e2ffff e0010000 d6e2ffff  ....h...........
 323c 0c020000 8ae3ffff 28020000 c3e3ffff  ........(.......
 324c 54020000 32e4ffff 70020000 bce4ffff  T...2...p.......
 325c 94020000 dee5ffff d4020000 1de6ffff  ................
 326c f4020000 74e6ffff 14030000 d0e6ffff  ....t...........
 327c 28030000 f7e6ffff 3c030000 14e7ffff  (.......<.......
 328c 50030000 7be7ffff 7c030000 69e8ffff  P...{...|...i...
 329c a8030000 6be8ffff bc030000 a6e8ffff  ....k...........
 32ac e4030000 f4e8ffff 0c040000 18eaffff  ................
 32bc 44040000 54eaffff 58040000 95eaffff  D...T...X.......
 32cc 7c040000 d9ebffff 98040000 9decffff  |...............
 32dc b4040000 cdecffff c8040000 89edffff  ................
 32ec 08050000 caf5ffff 74050000 f5f5ffff  ........t.......
 32fc 90050000 fef7ffff c4050000 74f8ffff  ............t...
 330c ec050000 e4f8ffff 34060000           ........4...    
Contents of section .eh_frame:
 3318 14000000 00000000 017a5200 01781001  .........zR..x..
 3328 1b0c0708 90010710 14000000 1c000000  ................
 3338 a8deffff 2b000000 00000000 00000000  ....+...........
 3348 14000000 00000000 017a5200 01781001  .........zR..x..
 3358 1b0c0708 90010000 24000000 1c000000  ........$.......
 3368 a8dcffff c0010000 000e1046 0e184a0f  ...........F..J.
 3378 0b770880 003f1a3b 2a332422 00000000  .w...?.;*3$"....
 3388 14000000 44000000 40deffff 08000000  ....D...@.......
 3398 00000000 00000000 1c000000 5c000000  ............\...
 33a8 42dfffff 5a010000 00410e10 83020300  B...Z....A......
 33b8 010a0e08 410b0000 18000000 7c000000  ....A.......|...
 33c8 7ce0ffff 20000000 00440e10 540a0e08  |... ....D..T...
 33d8 410b0000 28000000 98000000 80e0ffff  A...(...........
 33e8 6e000000 00410e10 8602410e 18830344  n....A....A....D
 33f8 0e400260 0a0e1841 0e10410e 08410b00  .@.`...A..A..A..
 3408 18000000 c4000000 c2e0ffff b4000000  ................
 3418 00440e20 02aa0a0e 08410b00 28000000  .D. .....A..(...
 3428 e0000000 5ae1ffff 39000000 00540e10  ....Z...9....T..
 3438 8c02410e 18860341 0e208304 5f0e1841  ..A....A. .._..A
 3448 0e10420e 08000000 18000000 0c010000  ..B.............
 3458 67e1ffff 6f000000 00440e20 02650a0e  g...o....D. .e..
 3468 08410b00 20000000 28010000 bae1ffff  .A.. ...(.......
 3478 8a000000 00410e10 8302440e 2002700a  .....A....D. .p.
 3488 0e10410e 08410b00 3c000000 4c010000  ..A..A..<...L...
 3498 20e2ffff 22010000 00420e10 8d02420e   ..."....B....B.
 34a8 188c0341 0e208604 410e2883 05440e90  ...A. ..A.(..D..
 34b8 01030c01 0a0e2841 0e20410e 18420e10  ......(A. A..B..
 34c8 420e0841 0b000000 1c000000 8c010000  B..A............
 34d8 02e3ffff 3f000000 00490e10 530a0e08  ....?....I..S...
 34e8 410b5c0e 08000000 1c000000 ac010000  A.\.............
 34f8 21e3ffff 57000000 00410e10 8302024e  !...W....A.....N
 3508 0a0e0841 0b000000 10000000 cc010000  ...A............
 3518 58e3ffff 5c000000 00440e10 10000000  X...\....D......
 3528 e0010000 a0e3ffff 27000000 00440e10  ........'....D..
 3538 10000000 f4010000 b3e3ffff 1d000000  ................
 3548 00000000 28000000 08020000 bce3ffff  ....(...........
 3558 67000000 00420e10 8c02410e 18860341  g....B....A....A
 3568 0e208304 630a0e18 410e1042 0e08410b  . ..c...A..B..A.
 3578 28000000 34020000 f7e3ffff ee000000  (...4...........
 3588 00410e10 8602410e 18830347 0ef04002  .A....A....G..@.
 3598 dd0a0e18 410e1041 0e08410b 10000000  ....A..A..A.....
 35a8 60020000 b9e4ffff 02000000 00000000  `...............
 35b8 24000000 74020000 a7e4ffff 3b000000  $...t.......;...
 35c8 00410e10 8602410e 18830344 0e20720e  .A....A....D. r.
 35d8 18410e10 410e0800 24000000 9c020000  .A..A...$.......
 35e8 bae4ffff 4e000000 00410e10 8602410e  ....N....A....A.
 35f8 18830344 0e200245 0e18410e 10410e08  ...D. .E..A..A..
 3608 34000000 c4020000 e0e4ffff 24010000  4...........$...
 3618 00410e10 8302470e a0800102 730ea880  .A....G.....s...
 3628 01410eb0 8001024c 0ea08001 5e0a0e10  .A.....L....^...
 3638 410e0841 0b000000 10000000 fc020000  A..A............
 3648 cce5ffff 3c000000 00440e10 20000000  ....<....D.. ...
 3658 10030000 f4e5ffff 41000000 00440e10  ........A....D..
 3668 4c0e1845 0e205d0e 10490a0e 08410b00  L..E. ]..I...A..
 3678 18000000 34030000 11e6ffff 44010000  ....4.......D...
 3688 00440e10 027d0a0e 08410b00 18000000  .D...}...A......
 3698 50030000 39e7ffff c4000000 00440e80  P...9........D..
 36a8 017b0a0e 08410b00 10000000 6c030000  .{...A......l...
 36b8 e1e7ffff 30000000 00440e10 3c000000  ....0....D..<...
 36c8 80030000 fde7ffff bc000000 00420e10  .............B..
 36d8 8e02420e 188d0342 0e208c04 410e2886  ..B....B. ..A.(.
 36e8 05410e30 83060284 0a0e2841 0e20420e  .A.0......(A. B.
 36f8 18420e10 420e0841 0b000000 68000000  .B..B..A....h...
 3708 c0030000 79e8ffff 41080000 00420e10  ....y...A....B..
 3718 8f02420e 188e0342 0e208d04 420e288c  ..B....B. ..B.(.
 3728 05410e30 8606410e 38830747 0eb0c102  .A.0..A.8..G....
 3738 039d060a 0e38410e 30410e28 420e2042  .....8A.0A.(B. B
 3748 0e18420e 10420e08 410b030c 010eb8c1  ..B..B..A.......
 3758 02490ec0 c102440e c8c10244 0ed0c102  .I....D....D....
 3768 02470eb0 c1020000 18000000 2c040000  .G..........,...
 3778 4ef0ffff 2b000000 00450e10 8302630e  N...+....E....c.
 3788 0841c300 30000000 48040000 5df0ffff  .A..0...H...]...
 3798 09020000 00420e10 8c02410e 18860341  .....B....A....A
 37a8 0e208304 440e4002 fa0a0e20 410e1841  . ..D.@.... A..A
 37b8 0e10420e 08410b00 24000000 7c040000  ..B..A..$...|...
 37c8 32f2ffff 73000000 00410e10 83025d0a  2...s....A....].
 37d8 0e08410b 680e1841 0e20690e 10000000  ..A.h..A. i.....
 37e8 44000000 a4040000 80f2ffff 65000000  D...........e...
 37f8 00420e10 8f02420e 188e0345 0e208d04  .B....B....E. ..
 3808 420e288c 05480e30 8606480e 3883074d  B.(..H.0..H.8..M
 3818 0e40720e 38410e30 410e2842 0e20420e  .@r.8A.0A.(B. B.
 3828 18420e10 420e0800 10000000 ec040000  .B..B...........
 3838 a8f2ffff 02000000 00000000 00000000  ................
Contents of section .init_array:
 203ce8 e0120000 00000000                    ........        
Contents of section .fini_array:
 203cf0 a0120000 00000000                    ........        
Contents of section .dynamic:
 203cf8 01000000 00000000 01000000 00000000  ................
 203d08 0c000000 00000000 f80f0000 00000000  ................
 203d18 0d000000 00000000 e42a0000 00000000  .........*......
 203d28 19000000 00000000 e83c2000 00000000  .........< .....
 203d38 1b000000 00000000 08000000 00000000  ................
 203d48 1a000000 00000000 f03c2000 00000000  .........< .....
 203d58 1c000000 00000000 08000000 00000000  ................
 203d68 f5feff6f 00000000 98020000 00000000  ...o............
 203d78 05000000 00000000 28060000 00000000  ........(.......
 203d88 06000000 00000000 c8020000 00000000  ................
 203d98 0a000000 00000000 bc010000 00000000  ................
 203da8 0b000000 00000000 18000000 00000000  ................
 203db8 15000000 00000000 00000000 00000000  ................
 203dc8 03000000 00000000 e83e2000 00000000  .........> .....
 203dd8 02000000 00000000 88020000 00000000  ................
 203de8 14000000 00000000 07000000 00000000  ................
 203df8 17000000 00000000 700d0000 00000000  ........p.......
 203e08 07000000 00000000 90080000 00000000  ................
 203e18 08000000 00000000 e0040000 00000000  ................
 203e28 09000000 00000000 18000000 00000000  ................
 203e38 1e000000 00000000 08000000 00000000  ................
 203e48 fbffff6f 00000000 01000008 00000000  ...o............
 203e58 feffff6f 00000000 30080000 00000000  ...o....0.......
 203e68 ffffff6f 00000000 01000000 00000000  ...o............
 203e78 f0ffff6f 00000000 e4070000 00000000  ...o............
 203e88 f9ffff6f 00000000 2c000000 00000000  ...o....,.......
 203e98 00000000 00000000 00000000 00000000  ................
 203ea8 00000000 00000000 00000000 00000000  ................
 203eb8 00000000 00000000 00000000 00000000  ................
 203ec8 00000000 00000000 00000000 00000000  ................
 203ed8 00000000 00000000 00000000 00000000  ................
Contents of section .got:
 203ee8 f83c2000 00000000 00000000 00000000  .< .............
 203ef8 00000000 00000000 26100000 00000000  ........&.......
 203f08 36100000 00000000 46100000 00000000  6.......F.......
 203f18 56100000 00000000 66100000 00000000  V.......f.......
 203f28 76100000 00000000 86100000 00000000  v...............
 203f38 96100000 00000000 a6100000 00000000  ................
 203f48 b6100000 00000000 c6100000 00000000  ................
 203f58 d6100000 00000000 e6100000 00000000  ................
 203f68 f6100000 00000000 06110000 00000000  ................
 203f78 16110000 00000000 26110000 00000000  ........&.......
 203f88 36110000 00000000 46110000 00000000  6.......F.......
 203f98 56110000 00000000 66110000 00000000  V.......f.......
 203fa8 76110000 00000000 86110000 00000000  v...............
 203fb8 96110000 00000000 a6110000 00000000  ................
 203fc8 b6110000 00000000 c6110000 00000000  ................
 203fd8 00000000 00000000 00000000 00000000  ................
 203fe8 00000000 00000000 00000000 00000000  ................
 203ff8 00000000 00000000                    ........        
Contents of section .data:
 204000 00000000 00000000 08402000 00000000  .........@ .....
 204010 28000000 00000000 00000000 00000000  (...............
 204020 00000000 00000000 00000000 00000000  ................
 204030 01000000 00000000 00000000 00000000  ................
 204040 00000000 00000000 00000000 00000000  ................
 204050 63000000 00000000 00000000 00000000  c...............
 204060 00000000 00000000 00000000 00000000  ................
 204070 23000000 00000000 00000000 00000000  #...............
 204080 00000000 00000000 00000000 00000000  ................
 204090 07000000 00000000 00000000 00000000  ................
 2040a0 00000000 00000000 00000000 00000000  ................
 2040b0 14000000 00000000 00000000 00000000  ................
 2040c0 00000000 00000000 00000000 00000000  ................
 2040d0 2f000000 00000000 00000000 00000000  /...............
 2040e0 00000000 00000000 00000000 00000000  ................
 2040f0 e9030000 00000000 00000000 00000000  ................
 204100 00000000 00000000 00000000 00000000  ................
 204110 81010000 06000000 00000000 00000000  ................
 204120 56727974 69596f34 41325158 7853384d  VrytiYo4A2QXxS8M
 204130 4138475a 006e6761 72673300 1d000000  A8GZ.ngarg3.....
 204140 24000000 00000000 60412000 00000000  $.......`A .....
 204150 80412000 00000000 00000000 00000000  .A .............
 204160 08000000 00000000 e0412000 00000000  .........A .....
 204170 a0412000 00000000 00000000 00000000  .A .............
 204180 32000000 00000000 c0412000 00000000  2........A .....
 204190 00422000 00000000 00000000 00000000  .B .............
 2041a0 16000000 00000000 b0402000 00000000  .........@ .....
 2041b0 70402000 00000000 00000000 00000000  p@ .............
 2041c0 2d000000 00000000 10402000 00000000  -........@ .....
 2041d0 d0402000 00000000 00000000 00000000  .@ .............
 2041e0 06000000 00000000 30402000 00000000  ........0@ .....
 2041f0 90402000 00000000 00000000 00000000  .@ .............
 204200 6b000000 00000000 50402000 00000000  k.......P@ .....
 204210 f0402000 00000000 00000000 00000000  .@ .............
 204220 5e000000 01000000 30422000 00000000  ^.......0B .....
 204230 bf020000 02000000 40422000 00000000  ........@B .....
 204240 6e020000 03000000 50422000 00000000  n.......PB .....
 204250 03010000 04000000 60422000 00000000  ........`B .....
 204260 2d020000 05000000 10412000 00000000  -........A .....
 204270 00000000 00000000 00000000 00000000  ................
 204280 672f0000 00000000 6b2f0000 00000000  g/......k/......
 204290 7e2f0000 00000000 852f0000 00000000  ~/......./......
 2042a0 9b2f0000 00000000 a12f0000 00000000  ./......./......
 2042b0 b92f0000 00000000 c22f0000 00000000  ./......./......
 2042c0 dd2f0000 00000000 e62f0000 00000000  ./......./......
 2042d0 01300000 00000000 0a300000 00000000  .0.......0......
 2042e0 25300000 00000000 2e300000 00000000  %0.......0......
 2042f0 49300000 00000000 52300000 00000000  I0......R0......
 204300 6d300000 00000000 76300000 00000000  m0......v0......
 204310 91300000 00000000 9a300000 00000000  .0.......0......
 204320 b5300000 00000000 be300000 00000000  .0.......0......
 204330 00000000 00000000 00000000 00000000  ................
 204340 00000000 00000000 00000000 00000000  ................
 204350 00000000 00000000 00000000 00000000  ................
 204360 00000000 00000000 00000000 00000000  ................
 204370 00000000 00000000 00000000 00000000  ................
 204380 00000000 00000000 00000000 00000000  ................
 204390 00000000 00000000 00000000 00000000  ................
 2043a0 00000000 00000000 00000000 00000000  ................
 2043b0 00000000 00000000 00000000 00000000  ................
 2043c0 00000000 00000000 00000000 00000000  ................
 2043d0 00000000 00000000 00000000 00000000  ................
 2043e0 00000000 00000000 00000000 00000000  ................
 2043f0 00000000 00000000 00000000 00000000  ................
 204400 00000000 00000000 00000000 00000000  ................
 204410 00000000 00000000 00000000 00000000  ................
 204420 00000000 00000000 00000000 00000000  ................
 204430 00000000 00000000 00000000 00000000  ................
 204440 00000000 00000000 00000000 00000000  ................
 204450 00000000 00000000 00000000 00000000  ................
 204460 00000000 00000000 00000000 00000000  ................
 204470 00000000 00000000 00000000 00000000  ................
 204480 00000000 00000000 00000000 00000000  ................
 204490 00000000 00000000 00000000 00000000  ................
 2044a0 00000000 00000000 00000000 00000000  ................
 2044b0 00000000 00000000 00000000 00000000  ................
 2044c0 00000000 00000000 00000000 00000000  ................
 2044d0 00000000 00000000 00000000 00000000  ................
 2044e0 00000000 00000000 00000000 00000000  ................
 2044f0 00000000 00000000 00000000 00000000  ................
 204500 00000000 00000000 00000000 00000000  ................
 204510 00000000 00000000 00000000 00000000  ................
 204520 00000000 00000000 00000000 00000000  ................
 204530 00000000 00000000 00000000 00000000  ................
 204540 00000000 00000000 00000000 00000000  ................
 204550 00000000 00000000 00000000 00000000  ................
 204560 00000000 00000000 00000000 00000000  ................
 204570 00000000 00000000 00000000 00000000  ................
 204580 00000000 00000000 00000000 00000000  ................
 204590 00000000 00000000 00000000 00000000  ................
 2045a0 00000000 00000000 00000000 00000000  ................
 2045b0 00000000 00000000 00000000 00000000  ................
 2045c0 00000000 00000000 00000000 00000000  ................
 2045d0 00000000 00000000 00000000 00000000  ................
 2045e0 00000000 00000000 00000000 00000000  ................
 2045f0 00000000 00000000 00000000 00000000  ................
 204600 00000000 00000000 00000000 00000000  ................
 204610 00000000 00000000 00000000 00000000  ................
 204620 00000000 00000000 00000000 00000000  ................
 204630 00000000 00000000 00000000 00000000  ................
 204640 00000000 00000000 00000000 00000000  ................
 204650 00000000 00000000 00000000 00000000  ................
 204660 00000000 00000000 00000000 00000000  ................
 204670 00000000 00000000 00000000 00000000  ................
Contents of section .comment:
 0000 4743433a 20285562 756e7475 20372e34  GCC: (Ubuntu 7.4
 0010 2e302d31 7562756e 7475317e 31382e30  .0-1ubuntu1~18.0
 0020 342e3129 20372e34 2e3000             4.1) 7.4.0.     
Contents of section .debug_aranges:
 0000 2c000000 02000000 00000800 00000000  ,...............
 0010 ea120000 00000000 5a010000 00000000  ........Z.......
 0020 00000000 00000000 00000000 00000000  ................
Contents of section .debug_info:
 0000 e7080000 04000000 00000801 23000000  ............#...
 0010 0c8b0200 00290100 00ea1200 00000000  .....)..........
 0020 005a0100 00000000 00000000 00027100  .Z............q.
 0030 000003d8 38000000 030807a4 00000003  ....8...........
 0040 01084f02 00000302 07b30100 00030407  ..O.............
 0050 a9000000 03010651 02000003 02055d02  .......Q......].
 0060 00000404 05696e74 00030805 c5000000  .....int........
 0070 02070000 00048c69 00000002 9e020000  .......i........
 0080 048d6900 00000508 06088e00 00000301  ..i.............
 0090 06580200 00078e00 00000826 020000d8  .X.........&....
 00a0 05f51a02 000009f1 00000005 f6620000  .............b..
 00b0 0000090f 00000005 fb880000 000809e4  ................
 00c0 00000005 fc880000 001009a8 02000005  ................
 00d0 fd880000 0018094b 03000005 fe880000  .......K........
 00e0 00200996 01000005 ff880000 00280a0d  . ...........(..
 00f0 02000005 00018800 0000300a 92000000  ..........0.....
 0100 05010188 00000038 0af80000 00050201  .......8........
 0110 88000000 400ac601 00000504 01880000  ....@...........
 0120 00480a31 03000005 05018800 0000500a  .H.1..........P.
 0130 b6020000 05060188 00000058 0a460200  ...........X.F..
 0140 00050801 5d020000 600a1c00 0000050a  ....]...`.......
 0150 01630200 00680adc 00000005 0c016200  .c...h........b.
 0160 0000700a da010000 05100162 00000074  ..p........b...t
 0170 0a1d0100 00051201 70000000 780a0401  ........p...x...
 0180 00000516 01460000 00800a67 02000005  .....F.....g....
 0190 17015400 0000820a 78000000 05180169  ..T.....x......i
 01a0 02000083 0ad40100 00051c01 79020000  ............y...
 01b0 880a2101 00000525 017b0000 00900ac9  ..!....%.{......
 01c0 02000005 2d018600 0000980a d0020000  ....-...........
 01d0 052e0186 000000a0 0ad70200 00052f01  ............../.
 01e0 86000000 a80ade02 00000530 01860000  ...........0....
 01f0 00b00ae5 02000005 32012d00 0000b80a  ........2.-.....
 0200 e2010000 05330162 000000c0 0aec0200  .....3.b........
 0210 00053501 7f020000 c400022a 02000006  ..5........*....
 0220 079a0000 000b1b02 0000059a 08770100  .............w..
 0230 001805a0 5d020000 09980200 0005a15d  ....]..........]
 0240 02000000 09ad0100 0005a263 02000008  ...........c....
 0250 09350200 0005a662 00000010 0006082c  .5.....b.......,
 0260 02000006 089a0000 000c8e00 00007902  ..............y.
 0270 00000d38 00000000 00060825 0200000c  ...8.......%....
 0280 8e000000 8f020000 0d380000 0013000e  .........8......
 0290 88010000 0ffe0100 00053f01 8f020000  ..........?.....
 02a0 0f760200 00054001 8f020000 0f820000  .v....@.........
 02b0 00054101 8f020000 06089500 000007b8  ..A.............
 02c0 02000010 b8020000 11820100 00078763  ...............c
 02d0 02000011 f7010000 07886302 000011f5  ..........c.....
 02e0 02000007 89630200 0011a401 0000081a  .....c..........
 02f0 62000000 0cbe0200 00ff0200 00120007  b...............
 0300 f4020000 113a0200 00081bff 02000003  .....:..........
 0310 0805c000 00000308 079f0000 00136001  ..............`.
 0320 00000122 32030000 0903b046 20000000  ..."2......F ...
 0330 00000608 1a020000 14460300 00012462  .........F....$b
 0340 000000ea 12000000 0000005a 01000000  ...........Z....
 0350 00000001 9c110700 00154103 00000124  ..........A....$
 0360 62000000 00000000 15fc0200 00012411  b.............$.
 0370 0700008b 00000016 92020000 01268800  .............&..
 0380 0000fd00 00001717 07000025 13000000  ...........%....
 0390 0000000c 00000000 00000001 45c60300  ............E...
 03a0 00182707 00007f01 00001931 13000000  ..'........1....
 03b0 00000074 0700001a 01550903 782b0000  ...t.....U..x+..
 03c0 00000000 00001717 07000031 13000000  ...........1....
 03d0 0000000c 00000000 00000001 46060400  ............F...
 03e0 00182707 0000a701 0000193d 13000000  ..'........=....
 03f0 00000074 0700001a 01550903 b82b0000  ...t.....U...+..
 0400 00000000 00001717 0700004f 13000000  ...........O....
 0410 0000000c 00000000 00000001 4d460400  ............MF..
 0420 00182707 0000cf01 0000195b 13000000  ..'........[....
 0430 00000074 0700001a 01550903 e82b0000  ...t.....U...+..
 0440 00000000 00001717 0700006d 13000000  ...........m....
 0450 0000000c 00000000 00000001 54860400  ............T...
 0460 00182707 0000f701 00001979 13000000  ..'........y....
 0470 00000074 0700001a 01550903 2d2b0000  ...t.....U..-+..
 0480 00000000 00001717 0700008b 13000000  ................
 0490 0000000c 00000000 00000001 5bc60400  ............[...
 04a0 00182707 00001f02 00001997 13000000  ..'.............
 04b0 00000074 0700001a 01550903 4b2b0000  ...t.....U..K+..
 04c0 00000000 00001717 070000a9 13000000  ................
 04d0 0000000c 00000000 00000001 61060500  ............a...
 04e0 00182707 00004702 000019b5 13000000  ..'...G.........
 04f0 00000074 0700001a 01550903 182c0000  ...t.....U...,..
 0500 00000000 00001717 070000c7 13000000  ................
 0510 0000000c 00000000 00000001 67460500  ............gF..
 0520 00182707 00006f02 000019d3 13000000  ..'...o.........
 0530 00000074 0700001a 01550903 5a2b0000  ...t.....U..Z+..
 0540 00000000 00001717 070000ff 13000000  ................
 0550 00000018 00000000 00000001 378b0500  ............7...
 0560 00182707 00009702 00001917 14000000  ..'.............
 0570 00000065 0800001a 01550131 1a015409  ...e.....U.1..T.
 0580 03f62a00 00000000 00000017 17070000  ..*.............
 0590 21140000 00000000 19000000 00000000  !...............
 05a0 013ed005 00001827 070000c3 02000019  .>.....'........
 05b0 3a140000 00000000 65080000 1a015501  :.......e.....U.
 05c0 311a0154 0903132b 00000000 00000000  1..T...+........
 05d0 1b101300 00000000 00700800 00ef0500  .........p......
 05e0 001a0154 0903f42a 00000000 0000001c  ...T...*........
 05f0 25130000 00000000 7b080000 1c421300  %.......{....B..
 0600 00000000 00860800 001c4a13 00000000  ..........J.....
 0610 00009108 00001c4f 13000000 0000009c  .......O........
 0620 0800001c 60130000 00000000 86080000  ....`...........
 0630 1c681300 00000000 00a70800 001c6d13  .h............m.
 0640 00000000 00009c08 00001c7e 13000000  ...........~....
 0650 00000086 0800001c 86130000 00000000  ................
 0660 b2080000 1c8b1300 00000000 009c0800  ................
 0670 001c9c13 00000000 00008608 00001ca4  ................
 0680 13000000 000000bd 0800001c a9130000  ................
 0690 00000000 9c080000 1cba1300 00000000  ................
 06a0 00860800 001cc213 00000000 0000c808  ................
 06b0 00001cc7 13000000 0000009c 0800001c  ................
 06c0 d8130000 00000000 86080000 1ce01300  ................
 06d0 00000000 00d30800 001ce513 00000000  ................
 06e0 00009c08 00001b21 14000000 000000de  .......!........
 06f0 080000fd 0600001a 01550138 00194414  .........U.8..D.
 0700 00000000 0000de08 00001a01 55013800  ............U.8.
 0710 00060888 0000001d 00000000 02666200  .............fb.
 0720 00000334 0700001e c3020000 0266c302  ...4.........f..
 0730 00001f00 203e9e3c 57656c63 6f6d6520  .... >.<Welcome 
 0740 746f206d 79206669 656e6469 7368206c  to my fiendish l
 0750 6974746c 6520626f 6d622e20 596f7520  ittle bomb. You 
 0760 68617665 20362070 68617365 73207769  have 6 phases wi
 0770 74680a00 21f20100 00e80100 000c00f2  th..!...........
 0780 01000020 2f9e2d77 68696368 20746f20  ... /.-which to 
 0790 626c6f77 20796f75 7273656c 66207570  blow yourself up
 07a0 2e204861 76652061 206e6963 65206461  . Have a nice da
 07b0 79210a00 202c9e2a 50686173 65203120  y!.. ,.*Phase 1 
 07c0 64656675 7365642e 20486f77 2061626f  defused. How abo
 07d0 75742074 6865206e 65787420 6f6e653f  ut the next one?
 07e0 0a002021 9e1f5468 61742773 206e756d  .. !..That's num
 07f0 62657220 322e2020 4b656570 20676f69  ber 2.  Keep goi
 0800 6e67210a 0020129e 1048616c 66776179  ng!.. ...Halfway
 0810 20746865 7265210a 0020279e 25536f20   there!.. '.%So 
 0820 796f7520 676f7420 74686174 206f6e65  you got that one
 0830 2e202054 72792074 68697320 6f6e652e  .  Try this one.
 0840 0a002021 9e1f476f 6f642077 6f726b21  .. !..Good work!
 0850 20204f6e 20746f20 74686520 6e657874    On to the next
 0860 2e2e2e0a 00221001 00001001 00000257  .....".........W
 0870 222f0200 002f0200 0007e822 67010000  "/.../....."g...
 0880 67010000 090922b6 000000b6 00000009  g.....".........
 0890 08220103 00000103 00000a04 22ce0000  .".........."...
 08a0 00ce0000 00090c22 09030000 09030000  ......."........
 08b0 0a052211 03000011 0300000a 06221903  ..".........."..
 08c0 00001903 00000a07 22210300 00210300  ........"!...!..
 08d0 000a0822 29030000 29030000 0a092386  ...")...).....#.
 08e0 02000086 0200000b 660200             ........f..     
Contents of section .debug_abbrev:
 0000 01110125 0e130b03 0e1b0e11 01120710  ...%............
 0010 17000002 1600030e 3a0b3b0b 49130000  ........:.;.I...
 0020 0324000b 0b3e0b03 0e000004 24000b0b  .$...>......$...
 0030 3e0b0308 0000050f 000b0b00 00060f00  >...............
 0040 0b0b4913 00000726 00491300 00081301  ..I....&.I......
 0050 030e0b0b 3a0b3b0b 01130000 090d0003  ....:.;.........
 0060 0e3a0b3b 0b491338 0b00000a 0d00030e  .:.;.I.8........
 0070 3a0b3b05 4913380b 00000b16 00030e3a  :.;.I.8........:
 0080 0b3b0b00 000c0101 49130113 00000d21  .;......I......!
 0090 0049132f 0b00000e 1300030e 3c190000  .I./........<...
 00a0 0f340003 0e3a0b3b 0549133f 193c1900  .4...:.;.I.?.<..
 00b0 00103700 49130000 11340003 0e3a0b3b  ..7.I....4...:.;
 00c0 0b49133f 193c1900 00122100 00001334  .I.?.<....!....4
 00d0 00030e3a 0b3b0b49 133f1902 18000014  ...:.;.I.?......
 00e0 2e013f19 030e3a0b 3b0b2719 49131101  ..?...:.;.'.I...
 00f0 12074018 97421901 13000015 0500030e  ..@..B..........
 0100 3a0b3b0b 49130217 00001634 00030e3a  :.;.I......4...:
 0110 0b3b0b49 13021700 00171d01 31131101  .;.I........1...
 0120 1207580b 590b0113 00001805 00311302  ..X.Y........1..
 0130 17000019 89820101 11013113 00001a8a  ..........1.....
 0140 82010002 18914218 00001b89 82010111  ......B.........
 0150 01311301 1300001c 89820100 11013113  .1............1.
 0160 00001d2e 013f1903 0e3a0b3b 0b271949  .....?...:.;.'.I
 0170 13200b34 19011300 001e0500 030e3a0b  . .4..........:.
 0180 3b0b4913 00001f18 00000020 36000218  ;.I........ 6...
 0190 0000212e 003f193c 196e0e03 0e3a0b3b  ..!..?.<.n...:.;
 01a0 0b6e0e00 00222e00 3f193c19 6e0e030e  .n..."..?.<.n...
 01b0 3a0b3b0b 0000232e 003f193c 196e0e03  :.;...#..?.<.n..
 01c0 0e3a0b3b 05000000                    .:.;....        
Contents of section .debug_line:
 0000 a2010000 02002501 00000101 fb0e0d00  ......%.........
 0010 01010101 00000001 0000012f 7573722f  .........../usr/
 0020 696e636c 7564652f 7838365f 36342d6c  include/x86_64-l
 0030 696e7578 2d676e75 2f626974 73002f75  inux-gnu/bits./u
 0040 73722f6c 69622f67 63632f78 38365f36  sr/lib/gcc/x86_6
 0050 342d6c69 6e75782d 676e752f 372f696e  4-linux-gnu/7/in
 0060 636c7564 65002f75 73722f69 6e636c75  clude./usr/inclu
 0070 64652f78 38365f36 342d6c69 6e75782d  de/x86_64-linux-
 0080 676e752f 62697473 2f747970 6573002f  gnu/bits/types./
 0090 7573722f 696e636c 75646500 00626f6d  usr/include..bom
 00a0 622e6300 00000073 7464696f 322e6800  b.c....stdio2.h.
 00b0 01000073 74646465 662e6800 02000074  ...stddef.h....t
 00c0 79706573 2e680001 00006c69 62696f2e  ypes.h....libio.
 00d0 68000100 0046494c 452e6800 03000073  h....FILE.h....s
 00e0 7464696f 2e680004 00007379 735f6572  tdio.h....sys_er
 00f0 726c6973 742e6800 01000073 7570706f  rlist.h....suppo
 0100 72742e68 00000000 70686173 65732e68  rt.h....phases.h
 0110 00000000 7374646c 69622e68 00040000  ....stdlib.h....
 0120 3c627569 6c742d69 6e3e0000 00000000  <built-in>......
 0130 0902ea12 00000000 00000324 0128c291  ...........$.(..
 0140 030d08e4 04020325 58040103 61087459  .......%X...a.tY
 0150 83040203 1d580401 0369ba59 83040203  .....X...i.Y....
 0160 15580401 0370ba59 83040203 0e580401  .X...p.Y.....X..
 0170 0376ba59 83040260 0401b659 8304025a  .v.Y...`...Y...Z
 0180 0401bd59 835e03bb 7f740402 033a082e  ...Y.^...t...:..
 0190 04010350 08740402 03309e04 01035708  ...P.t...0....W.
 01a0 82020a00 0101                        ......          
Contents of section .debug_str:
 0000 7072696e 7466005f 5f6f6666 5f74005f  printf.__off_t._
 0010 494f5f72 6561645f 70747200 5f636861  IO_read_ptr._cha
 0020 696e0047 4e552043 31312037 2e342e30  in.GNU C11 7.4.0
 0030 202d6d74 756e653d 67656e65 72696320   -mtune=generic 
 0040 2d6d6172 63683d78 38362d36 34202d67  -march=x86-64 -g
 0050 67646220 2d4f3120 2d667374 61636b2d  gdb -O1 -fstack-
 0060 70726f74 6563746f 722d7374 726f6e67  protector-strong
 0070 0073697a 655f7400 5f73686f 72746275  .size_t._shortbu
 0080 66005f49 4f5f325f 315f7374 64657272  f._IO_2_1_stderr
 0090 5f005f49 4f5f6275 665f6261 7365006c  _._IO_buf_base.l
 00a0 6f6e6720 6c6f6e67 20756e73 69676e65  ong long unsigne
 00b0 6420696e 74007265 61645f6c 696e6500  d int.read_line.
 00c0 6c6f6e67 206c6f6e 6720696e 74007068  long long int.ph
 00d0 6173655f 64656675 73656400 5f66696c  ase_defused._fil
 00e0 656e6f00 5f494f5f 72656164 5f656e64  eno._IO_read_end
 00f0 005f666c 61677300 5f494f5f 6275665f  ._flags._IO_buf_
 0100 656e6400 5f637572 5f636f6c 756d6e00  end._cur_column.
 0110 5f5f7072 696e7466 5f63686b 005f6f6c  __printf_chk._ol
 0120 645f6f66 66736574 002f686f 6d652f75  d_offset./home/u
 0130 6d726967 61722f70 726f6a65 6374732f  mrigar/projects/
 0140 63733232 302d3139 66702f70 726f6a65  cs220-19fp/proje
 0150 6374732f 626f6d62 6c61622f 73726300  cts/bomblab/src.
 0160 696e6669 6c650069 6e697469 616c697a  infile.initializ
 0170 655f626f 6d62005f 494f5f6d 61726b65  e_bomb._IO_marke
 0180 72007374 64696e00 5f494f5f 46494c45  r.stdin._IO_FILE
 0190 5f706c75 73005f49 4f5f7772 6974655f  _plus._IO_write_
 01a0 70747200 7379735f 6e657272 005f7362  ptr.sys_nerr._sb
 01b0 75660073 686f7274 20756e73 69676e65  uf.short unsigne
 01c0 6420696e 74005f49 4f5f7361 76655f62  d int._IO_save_b
 01d0 61736500 5f6c6f63 6b005f66 6c616773  ase._lock._flags
 01e0 32005f6d 6f646500 5f5f6275 696c7469  2._mode.__builti
 01f0 6e5f7075 74730073 74646f75 74005f49  n_puts.stdout._I
 0200 4f5f325f 315f7374 64696e5f 005f494f  O_2_1_stdin_._IO
 0210 5f777269 74655f65 6e64005f 494f5f6c  _write_end._IO_l
 0220 6f636b5f 74005f49 4f5f4649 4c450066  ock_t._IO_FILE.f
 0230 6f70656e 005f706f 73007379 735f6572  open._pos.sys_er
 0240 726c6973 74005f6d 61726b65 72730075  rlist._markers.u
 0250 6e736967 6e656420 63686172 0073686f  nsigned char.sho
 0260 72742069 6e74005f 76746162 6c655f6f  rt int._vtable_o
 0270 66667365 74005f49 4f5f325f 315f7374  ffset._IO_2_1_st
 0280 646f7574 5f006578 69740062 6f6d622e  dout_.exit.bomb.
 0290 6300696e 70757400 5f6e6578 74005f5f  c.input._next.__
 02a0 6f666636 345f7400 5f494f5f 72656164  off64_t._IO_read
 02b0 5f626173 65005f49 4f5f7361 76655f65  _base._IO_save_e
 02c0 6e64005f 5f666d74 005f5f70 61643100  nd.__fmt.__pad1.
 02d0 5f5f7061 6432005f 5f706164 33005f5f  __pad2.__pad3.__
 02e0 70616434 005f5f70 61643500 5f756e75  pad4.__pad5._unu
 02f0 73656432 00737464 65727200 61726776  sed2.stderr.argv
 0300 00706861 73655f31 00706861 73655f32  .phase_1.phase_2
 0310 00706861 73655f33 00706861 73655f34  .phase_3.phase_4
 0320 00706861 73655f35 00706861 73655f36  .phase_5.phase_6
 0330 005f494f 5f626163 6b75705f 62617365  ._IO_backup_base
 0340 00617267 63006d61 696e005f 494f5f77  .argc.main._IO_w
 0350 72697465 5f626173 6500               rite_base.      
Contents of section .debug_loc:
 0000 00000000 00000000 1a000000 00000000  ................
 0010 0100551a 00000000 00000002 01000000  ..U.............
 0020 00000004 00f30155 9f020100 00000000  .......U........
 0030 00150100 00000000 00010055 15010000  ...........U....
 0040 00000000 37010000 00000000 0400f301  ....7...........
 0050 559f3701 00000000 00004601 00000000  U.7.......F.....
 0060 00000100 55460100 00000000 005a0100  ....UF.......Z..
 0070 00000000 000400f3 01559f00 00000000  .........U......
 0080 00000000 00000000 00000000 00000000  ................
 0090 00000021 00000000 00000001 00542100  ...!.........T!.
 00a0 00000000 00003600 00000000 00000100  ......6.........
 00b0 53360000 00000000 00020100 00000000  S6..............
 00c0 000400f3 01549f02 01000000 00000015  .....T..........
 00d0 01000000 00000001 00541501 00000000  .........T......
 00e0 00005a01 00000000 00000100 53000000  ..Z.........S...
 00f0 00000000 00000000 00000000 00580000  .............X..
 0100 00000000 005f0000 00000000 00010050  ....._.........P
 0110 76000000 00000000 7d000000 00000000  v.......}.......
 0120 01005094 00000000 0000009b 00000000  ..P.............
 0130 00000001 0050b200 00000000 0000b900  .....P..........
 0140 00000000 00000100 50d00000 00000000  ........P.......
 0150 00d70000 00000000 00010050 ee000000  ...........P....
 0160 00000000 f5000000 00000000 01005000  ..............P.
 0170 00000000 00000000 00000000 0000003b  ...............;
 0180 00000000 00000047 00000000 00000006  .......G........
 0190 00f23407 00000000 00000000 00000000  ..4.............
 01a0 00000000 00000047 00000000 00000053  .......G.......S
 01b0 00000000 00000006 00f28307 00000000  ................
 01c0 00000000 00000000 00000000 00000065  ...............e
 01d0 00000000 00000071 00000000 00000006  .......q........
 01e0 00f2b407 00000000 00000000 00000000  ................
 01f0 00000000 00000083 00000000 0000008f  ................
 0200 00000000 00000006 00f2e207 00000000  ................
 0210 00000000 00000000 00000000 000000a1  ................
 0220 00000000 000000ad 00000000 00000006  ................
 0230 00f20508 00000000 00000000 00000000  ................
 0240 00000000 000000bf 00000000 000000cb  ................
 0250 00000000 00000006 00f21908 00000000  ................
 0260 00000000 00000000 00000000 000000dd  ................
 0270 00000000 000000e9 00000000 00000006  ................
 0280 00f24208 00000000 00000000 00000000  ..B.............
 0290 00000000 00000015 01000000 0000002d  ...............-
 02a0 01000000 0000000a 0003f62a 00000000  ...........*....
 02b0 00009f00 00000000 00000000 00000000  ................
 02c0 00000037 01000000 00000050 01000000  ...7.......P....
 02d0 0000000a 0003132b 00000000 00009f00  .......+........
 02e0 00000000 00000000 00000000 000000    ............... 

Disassembly of section .init:

0000000000000ff8 <_init>:
     ff8:	48 83 ec 08          	sub    $0x8,%rsp
     ffc:	48 8b 05 e5 2f 20 00 	mov    0x202fe5(%rip),%rax        # 203fe8 <__gmon_start__>
    1003:	48 85 c0             	test   %rax,%rax
    1006:	74 02                	je     100a <_init+0x12>
    1008:	ff d0                	callq  *%rax
    100a:	48 83 c4 08          	add    $0x8,%rsp
    100e:	c3                   	retq   

Disassembly of section .plt:

0000000000001010 <.plt>:
    1010:	ff 35 da 2e 20 00    	pushq  0x202eda(%rip)        # 203ef0 <_GLOBAL_OFFSET_TABLE_+0x8>
    1016:	ff 25 dc 2e 20 00    	jmpq   *0x202edc(%rip)        # 203ef8 <_GLOBAL_OFFSET_TABLE_+0x10>
    101c:	0f 1f 40 00          	nopl   0x0(%rax)

0000000000001020 <getenv@plt>:
    1020:	ff 25 da 2e 20 00    	jmpq   *0x202eda(%rip)        # 203f00 <getenv@GLIBC_2.2.5>
    1026:	68 00 00 00 00       	pushq  $0x0
    102b:	e9 e0 ff ff ff       	jmpq   1010 <.plt>

0000000000001030 <strcasecmp@plt>:
    1030:	ff 25 d2 2e 20 00    	jmpq   *0x202ed2(%rip)        # 203f08 <strcasecmp@GLIBC_2.2.5>
    1036:	68 01 00 00 00       	pushq  $0x1
    103b:	e9 d0 ff ff ff       	jmpq   1010 <.plt>

0000000000001040 <__errno_location@plt>:
    1040:	ff 25 ca 2e 20 00    	jmpq   *0x202eca(%rip)        # 203f10 <__errno_location@GLIBC_2.2.5>
    1046:	68 02 00 00 00       	pushq  $0x2
    104b:	e9 c0 ff ff ff       	jmpq   1010 <.plt>

0000000000001050 <strcpy@plt>:
    1050:	ff 25 c2 2e 20 00    	jmpq   *0x202ec2(%rip)        # 203f18 <strcpy@GLIBC_2.2.5>
    1056:	68 03 00 00 00       	pushq  $0x3
    105b:	e9 b0 ff ff ff       	jmpq   1010 <.plt>

0000000000001060 <puts@plt>:
    1060:	ff 25 ba 2e 20 00    	jmpq   *0x202eba(%rip)        # 203f20 <puts@GLIBC_2.2.5>
    1066:	68 04 00 00 00       	pushq  $0x4
    106b:	e9 a0 ff ff ff       	jmpq   1010 <.plt>

0000000000001070 <write@plt>:
    1070:	ff 25 b2 2e 20 00    	jmpq   *0x202eb2(%rip)        # 203f28 <write@GLIBC_2.2.5>
    1076:	68 05 00 00 00       	pushq  $0x5
    107b:	e9 90 ff ff ff       	jmpq   1010 <.plt>

0000000000001080 <__stack_chk_fail@plt>:
    1080:	ff 25 aa 2e 20 00    	jmpq   *0x202eaa(%rip)        # 203f30 <__stack_chk_fail@GLIBC_2.4>
    1086:	68 06 00 00 00       	pushq  $0x6
    108b:	e9 80 ff ff ff       	jmpq   1010 <.plt>

0000000000001090 <alarm@plt>:
    1090:	ff 25 a2 2e 20 00    	jmpq   *0x202ea2(%rip)        # 203f38 <alarm@GLIBC_2.2.5>
    1096:	68 07 00 00 00       	pushq  $0x7
    109b:	e9 70 ff ff ff       	jmpq   1010 <.plt>

00000000000010a0 <close@plt>:
    10a0:	ff 25 9a 2e 20 00    	jmpq   *0x202e9a(%rip)        # 203f40 <close@GLIBC_2.2.5>
    10a6:	68 08 00 00 00       	pushq  $0x8
    10ab:	e9 60 ff ff ff       	jmpq   1010 <.plt>

00000000000010b0 <read@plt>:
    10b0:	ff 25 92 2e 20 00    	jmpq   *0x202e92(%rip)        # 203f48 <read@GLIBC_2.2.5>
    10b6:	68 09 00 00 00       	pushq  $0x9
    10bb:	e9 50 ff ff ff       	jmpq   1010 <.plt>

00000000000010c0 <fgets@plt>:
    10c0:	ff 25 8a 2e 20 00    	jmpq   *0x202e8a(%rip)        # 203f50 <fgets@GLIBC_2.2.5>
    10c6:	68 0a 00 00 00       	pushq  $0xa
    10cb:	e9 40 ff ff ff       	jmpq   1010 <.plt>

00000000000010d0 <signal@plt>:
    10d0:	ff 25 82 2e 20 00    	jmpq   *0x202e82(%rip)        # 203f58 <signal@GLIBC_2.2.5>
    10d6:	68 0b 00 00 00       	pushq  $0xb
    10db:	e9 30 ff ff ff       	jmpq   1010 <.plt>

00000000000010e0 <gethostbyname@plt>:
    10e0:	ff 25 7a 2e 20 00    	jmpq   *0x202e7a(%rip)        # 203f60 <gethostbyname@GLIBC_2.2.5>
    10e6:	68 0c 00 00 00       	pushq  $0xc
    10eb:	e9 20 ff ff ff       	jmpq   1010 <.plt>

00000000000010f0 <__memmove_chk@plt>:
    10f0:	ff 25 72 2e 20 00    	jmpq   *0x202e72(%rip)        # 203f68 <__memmove_chk@GLIBC_2.3.4>
    10f6:	68 0d 00 00 00       	pushq  $0xd
    10fb:	e9 10 ff ff ff       	jmpq   1010 <.plt>

0000000000001100 <strtol@plt>:
    1100:	ff 25 6a 2e 20 00    	jmpq   *0x202e6a(%rip)        # 203f70 <strtol@GLIBC_2.2.5>
    1106:	68 0e 00 00 00       	pushq  $0xe
    110b:	e9 00 ff ff ff       	jmpq   1010 <.plt>

0000000000001110 <fflush@plt>:
    1110:	ff 25 62 2e 20 00    	jmpq   *0x202e62(%rip)        # 203f78 <fflush@GLIBC_2.2.5>
    1116:	68 0f 00 00 00       	pushq  $0xf
    111b:	e9 f0 fe ff ff       	jmpq   1010 <.plt>

0000000000001120 <__isoc99_sscanf@plt>:
    1120:	ff 25 5a 2e 20 00    	jmpq   *0x202e5a(%rip)        # 203f80 <__isoc99_sscanf@GLIBC_2.7>
    1126:	68 10 00 00 00       	pushq  $0x10
    112b:	e9 e0 fe ff ff       	jmpq   1010 <.plt>

0000000000001130 <__printf_chk@plt>:
    1130:	ff 25 52 2e 20 00    	jmpq   *0x202e52(%rip)        # 203f88 <__printf_chk@GLIBC_2.3.4>
    1136:	68 11 00 00 00       	pushq  $0x11
    113b:	e9 d0 fe ff ff       	jmpq   1010 <.plt>

0000000000001140 <fopen@plt>:
    1140:	ff 25 4a 2e 20 00    	jmpq   *0x202e4a(%rip)        # 203f90 <fopen@GLIBC_2.2.5>
    1146:	68 12 00 00 00       	pushq  $0x12
    114b:	e9 c0 fe ff ff       	jmpq   1010 <.plt>

0000000000001150 <gethostname@plt>:
    1150:	ff 25 42 2e 20 00    	jmpq   *0x202e42(%rip)        # 203f98 <gethostname@GLIBC_2.2.5>
    1156:	68 13 00 00 00       	pushq  $0x13
    115b:	e9 b0 fe ff ff       	jmpq   1010 <.plt>

0000000000001160 <exit@plt>:
    1160:	ff 25 3a 2e 20 00    	jmpq   *0x202e3a(%rip)        # 203fa0 <exit@GLIBC_2.2.5>
    1166:	68 14 00 00 00       	pushq  $0x14
    116b:	e9 a0 fe ff ff       	jmpq   1010 <.plt>

0000000000001170 <connect@plt>:
    1170:	ff 25 32 2e 20 00    	jmpq   *0x202e32(%rip)        # 203fa8 <connect@GLIBC_2.2.5>
    1176:	68 15 00 00 00       	pushq  $0x15
    117b:	e9 90 fe ff ff       	jmpq   1010 <.plt>

0000000000001180 <__fprintf_chk@plt>:
    1180:	ff 25 2a 2e 20 00    	jmpq   *0x202e2a(%rip)        # 203fb0 <__fprintf_chk@GLIBC_2.3.4>
    1186:	68 16 00 00 00       	pushq  $0x16
    118b:	e9 80 fe ff ff       	jmpq   1010 <.plt>

0000000000001190 <sleep@plt>:
    1190:	ff 25 22 2e 20 00    	jmpq   *0x202e22(%rip)        # 203fb8 <sleep@GLIBC_2.2.5>
    1196:	68 17 00 00 00       	pushq  $0x17
    119b:	e9 70 fe ff ff       	jmpq   1010 <.plt>

00000000000011a0 <__ctype_b_loc@plt>:
    11a0:	ff 25 1a 2e 20 00    	jmpq   *0x202e1a(%rip)        # 203fc0 <__ctype_b_loc@GLIBC_2.3>
    11a6:	68 18 00 00 00       	pushq  $0x18
    11ab:	e9 60 fe ff ff       	jmpq   1010 <.plt>

00000000000011b0 <__sprintf_chk@plt>:
    11b0:	ff 25 12 2e 20 00    	jmpq   *0x202e12(%rip)        # 203fc8 <__sprintf_chk@GLIBC_2.3.4>
    11b6:	68 19 00 00 00       	pushq  $0x19
    11bb:	e9 50 fe ff ff       	jmpq   1010 <.plt>

00000000000011c0 <socket@plt>:
    11c0:	ff 25 0a 2e 20 00    	jmpq   *0x202e0a(%rip)        # 203fd0 <socket@GLIBC_2.2.5>
    11c6:	68 1a 00 00 00       	pushq  $0x1a
    11cb:	e9 40 fe ff ff       	jmpq   1010 <.plt>

Disassembly of section .plt.got:

00000000000011d0 <__cxa_finalize@plt>:
    11d0:	ff 25 22 2e 20 00    	jmpq   *0x202e22(%rip)        # 203ff8 <__cxa_finalize@GLIBC_2.2.5>
    11d6:	66 90                	xchg   %ax,%ax

Disassembly of section .text:

00000000000011e0 <_start>:
    11e0:	31 ed                	xor    %ebp,%ebp
    11e2:	49 89 d1             	mov    %rdx,%r9
    11e5:	5e                   	pop    %rsi
    11e6:	48 89 e2             	mov    %rsp,%rdx
    11e9:	48 83 e4 f0          	and    $0xfffffffffffffff0,%rsp
    11ed:	50                   	push   %rax
    11ee:	54                   	push   %rsp
    11ef:	4c 8d 05 ea 18 00 00 	lea    0x18ea(%rip),%r8        # 2ae0 <__libc_csu_fini>
    11f6:	48 8d 0d 73 18 00 00 	lea    0x1873(%rip),%rcx        # 2a70 <__libc_csu_init>
    11fd:	48 8d 3d e6 00 00 00 	lea    0xe6(%rip),%rdi        # 12ea <main>
    1204:	ff 15 d6 2d 20 00    	callq  *0x202dd6(%rip)        # 203fe0 <__libc_start_main@GLIBC_2.2.5>
    120a:	f4                   	hlt    
    120b:	0f 1f 44 00 00       	nopl   0x0(%rax,%rax,1)

0000000000001210 <deregister_tm_clones>:
    1210:	48 8d 3d 69 34 20 00 	lea    0x203469(%rip),%rdi        # 204680 <stdout@@GLIBC_2.2.5>
    1217:	55                   	push   %rbp
    1218:	48 8d 05 61 34 20 00 	lea    0x203461(%rip),%rax        # 204680 <stdout@@GLIBC_2.2.5>
    121f:	48 39 f8             	cmp    %rdi,%rax
    1222:	48 89 e5             	mov    %rsp,%rbp
    1225:	74 19                	je     1240 <deregister_tm_clones+0x30>
    1227:	48 8b 05 aa 2d 20 00 	mov    0x202daa(%rip),%rax        # 203fd8 <_ITM_deregisterTMCloneTable>
    122e:	48 85 c0             	test   %rax,%rax
    1231:	74 0d                	je     1240 <deregister_tm_clones+0x30>
    1233:	5d                   	pop    %rbp
    1234:	ff e0                	jmpq   *%rax
    1236:	66 2e 0f 1f 84 00 00 	nopw   %cs:0x0(%rax,%rax,1)
    123d:	00 00 00 
    1240:	5d                   	pop    %rbp
    1241:	c3                   	retq   
    1242:	0f 1f 40 00          	nopl   0x0(%rax)
    1246:	66 2e 0f 1f 84 00 00 	nopw   %cs:0x0(%rax,%rax,1)
    124d:	00 00 00 

0000000000001250 <register_tm_clones>:
    1250:	48 8d 3d 29 34 20 00 	lea    0x203429(%rip),%rdi        # 204680 <stdout@@GLIBC_2.2.5>
    1257:	48 8d 35 22 34 20 00 	lea    0x203422(%rip),%rsi        # 204680 <stdout@@GLIBC_2.2.5>
    125e:	55                   	push   %rbp
    125f:	48 29 fe             	sub    %rdi,%rsi
    1262:	48 89 e5             	mov    %rsp,%rbp
    1265:	48 c1 fe 03          	sar    $0x3,%rsi
    1269:	48 89 f0             	mov    %rsi,%rax
    126c:	48 c1 e8 3f          	shr    $0x3f,%rax
    1270:	48 01 c6             	add    %rax,%rsi
    1273:	48 d1 fe             	sar    %rsi
    1276:	74 18                	je     1290 <register_tm_clones+0x40>
    1278:	48 8b 05 71 2d 20 00 	mov    0x202d71(%rip),%rax        # 203ff0 <_ITM_registerTMCloneTable>
    127f:	48 85 c0             	test   %rax,%rax
    1282:	74 0c                	je     1290 <register_tm_clones+0x40>
    1284:	5d                   	pop    %rbp
    1285:	ff e0                	jmpq   *%rax
    1287:	66 0f 1f 84 00 00 00 	nopw   0x0(%rax,%rax,1)
    128e:	00 00 
    1290:	5d                   	pop    %rbp
    1291:	c3                   	retq   
    1292:	0f 1f 40 00          	nopl   0x0(%rax)
    1296:	66 2e 0f 1f 84 00 00 	nopw   %cs:0x0(%rax,%rax,1)
    129d:	00 00 00 

00000000000012a0 <__do_global_dtors_aux>:
    12a0:	80 3d 01 34 20 00 00 	cmpb   $0x0,0x203401(%rip)        # 2046a8 <completed.7697>
    12a7:	75 2f                	jne    12d8 <__do_global_dtors_aux+0x38>
    12a9:	48 83 3d 47 2d 20 00 	cmpq   $0x0,0x202d47(%rip)        # 203ff8 <__cxa_finalize@GLIBC_2.2.5>
    12b0:	00 
    12b1:	55                   	push   %rbp
    12b2:	48 89 e5             	mov    %rsp,%rbp
    12b5:	74 0c                	je     12c3 <__do_global_dtors_aux+0x23>
    12b7:	48 8b 3d 4a 2d 20 00 	mov    0x202d4a(%rip),%rdi        # 204008 <__dso_handle>
    12be:	e8 0d ff ff ff       	callq  11d0 <__cxa_finalize@plt>
    12c3:	e8 48 ff ff ff       	callq  1210 <deregister_tm_clones>
    12c8:	c6 05 d9 33 20 00 01 	movb   $0x1,0x2033d9(%rip)        # 2046a8 <completed.7697>
    12cf:	5d                   	pop    %rbp
    12d0:	c3                   	retq   
    12d1:	0f 1f 80 00 00 00 00 	nopl   0x0(%rax)
    12d8:	f3 c3                	repz retq 
    12da:	66 0f 1f 44 00 00    	nopw   0x0(%rax,%rax,1)

00000000000012e0 <frame_dummy>:
    12e0:	55                   	push   %rbp
    12e1:	48 89 e5             	mov    %rsp,%rbp
    12e4:	5d                   	pop    %rbp
    12e5:	e9 66 ff ff ff       	jmpq   1250 <register_tm_clones>

00000000000012ea <main>:
    12ea:	53                   	push   %rbx
    12eb:	83 ff 01             	cmp    $0x1,%edi
    12ee:	0f 84 f8 00 00 00    	je     13ec <main+0x102>
    12f4:	48 89 f3             	mov    %rsi,%rbx
    12f7:	83 ff 02             	cmp    $0x2,%edi
    12fa:	0f 85 21 01 00 00    	jne    1421 <main+0x137>
    1300:	48 8b 7e 08          	mov    0x8(%rsi),%rdi
    1304:	48 8d 35 e9 17 00 00 	lea    0x17e9(%rip),%rsi        # 2af4 <_IO_stdin_used+0x4>
    130b:	e8 30 fe ff ff       	callq  1140 <fopen@plt>
    1310:	48 89 05 99 33 20 00 	mov    %rax,0x203399(%rip)        # 2046b0 <infile>
    1317:	48 85 c0             	test   %rax,%rax
    131a:	0f 84 df 00 00 00    	je     13ff <main+0x115>
    1320:	e8 52 06 00 00       	callq  1977 <initialize_bomb>
    1325:	48 8d 3d 4c 18 00 00 	lea    0x184c(%rip),%rdi        # 2b78 <_IO_stdin_used+0x88>
    132c:	e8 2f fd ff ff       	callq  1060 <puts@plt>
    1331:	48 8d 3d 80 18 00 00 	lea    0x1880(%rip),%rdi        # 2bb8 <_IO_stdin_used+0xc8>
    1338:	e8 23 fd ff ff       	callq  1060 <puts@plt>
    133d:	e8 4f 09 00 00       	callq  1c91 <read_line>
    1342:	48 89 c7             	mov    %rax,%rdi
    1345:	e8 fa 00 00 00       	callq  1444 <phase_1>
    134a:	e8 86 0a 00 00       	callq  1dd5 <phase_defused>
    134f:	48 8d 3d 92 18 00 00 	lea    0x1892(%rip),%rdi        # 2be8 <_IO_stdin_used+0xf8>
    1356:	e8 05 fd ff ff       	callq  1060 <puts@plt>
    135b:	e8 31 09 00 00       	callq  1c91 <read_line>
    1360:	48 89 c7             	mov    %rax,%rdi
    1363:	e8 fc 00 00 00       	callq  1464 <phase_2>
    1368:	e8 68 0a 00 00       	callq  1dd5 <phase_defused>
    136d:	48 8d 3d b9 17 00 00 	lea    0x17b9(%rip),%rdi        # 2b2d <_IO_stdin_used+0x3d>
    1374:	e8 e7 fc ff ff       	callq  1060 <puts@plt>
    1379:	e8 13 09 00 00       	callq  1c91 <read_line>
    137e:	48 89 c7             	mov    %rax,%rdi
    1381:	e8 4c 01 00 00       	callq  14d2 <phase_3>
    1386:	e8 4a 0a 00 00       	callq  1dd5 <phase_defused>
    138b:	48 8d 3d b9 17 00 00 	lea    0x17b9(%rip),%rdi        # 2b4b <_IO_stdin_used+0x5b>
    1392:	e8 c9 fc ff ff       	callq  1060 <puts@plt>
    1397:	e8 f5 08 00 00       	callq  1c91 <read_line>
    139c:	48 89 c7             	mov    %rax,%rdi
    139f:	e8 1b 02 00 00       	callq  15bf <phase_4>
    13a4:	e8 2c 0a 00 00       	callq  1dd5 <phase_defused>
    13a9:	48 8d 3d 68 18 00 00 	lea    0x1868(%rip),%rdi        # 2c18 <_IO_stdin_used+0x128>
    13b0:	e8 ab fc ff ff       	callq  1060 <puts@plt>
    13b5:	e8 d7 08 00 00       	callq  1c91 <read_line>
    13ba:	48 89 c7             	mov    %rax,%rdi
    13bd:	e8 6c 02 00 00       	callq  162e <phase_5>
    13c2:	e8 0e 0a 00 00       	callq  1dd5 <phase_defused>
    13c7:	48 8d 3d 8c 17 00 00 	lea    0x178c(%rip),%rdi        # 2b5a <_IO_stdin_used+0x6a>
    13ce:	e8 8d fc ff ff       	callq  1060 <puts@plt>
    13d3:	e8 b9 08 00 00       	callq  1c91 <read_line>
    13d8:	48 89 c7             	mov    %rax,%rdi
    13db:	e8 d8 02 00 00       	callq  16b8 <phase_6>
    13e0:	e8 f0 09 00 00       	callq  1dd5 <phase_defused>
    13e5:	b8 00 00 00 00       	mov    $0x0,%eax
    13ea:	5b                   	pop    %rbx
    13eb:	c3                   	retq   
    13ec:	48 8b 05 9d 32 20 00 	mov    0x20329d(%rip),%rax        # 204690 <stdin@@GLIBC_2.2.5>
    13f3:	48 89 05 b6 32 20 00 	mov    %rax,0x2032b6(%rip)        # 2046b0 <infile>
    13fa:	e9 21 ff ff ff       	jmpq   1320 <main+0x36>
    13ff:	48 8b 4b 08          	mov    0x8(%rbx),%rcx
    1403:	48 8b 13             	mov    (%rbx),%rdx
    1406:	48 8d 35 e9 16 00 00 	lea    0x16e9(%rip),%rsi        # 2af6 <_IO_stdin_used+0x6>
    140d:	bf 01 00 00 00       	mov    $0x1,%edi
    1412:	e8 19 fd ff ff       	callq  1130 <__printf_chk@plt>
    1417:	bf 08 00 00 00       	mov    $0x8,%edi
    141c:	e8 3f fd ff ff       	callq  1160 <exit@plt>
    1421:	48 8b 16             	mov    (%rsi),%rdx
    1424:	48 8d 35 e8 16 00 00 	lea    0x16e8(%rip),%rsi        # 2b13 <_IO_stdin_used+0x23>
    142b:	bf 01 00 00 00       	mov    $0x1,%edi
    1430:	b8 00 00 00 00       	mov    $0x0,%eax
    1435:	e8 f6 fc ff ff       	callq  1130 <__printf_chk@plt>
    143a:	bf 08 00 00 00       	mov    $0x8,%edi
    143f:	e8 1c fd ff ff       	callq  1160 <exit@plt>

0000000000001444 <phase_1>:
    1444:	48 83 ec 08          	sub    $0x8,%rsp
    1448:	48 8d 35 f1 17 00 00 	lea    0x17f1(%rip),%rsi        # 2c40 <_IO_stdin_used+0x150>
    144f:	e8 bc 04 00 00       	callq  1910 <strings_not_equal>
    1454:	85 c0                	test   %eax,%eax
    1456:	75 05                	jne    145d <phase_1+0x19>
    1458:	48 83 c4 08          	add    $0x8,%rsp
    145c:	c3                   	retq   
    145d:	e8 b2 07 00 00       	callq  1c14 <explode_bomb>
    1462:	eb f4                	jmp    1458 <phase_1+0x14>

0000000000001464 <phase_2>:
    1464:	55                   	push   %rbp
    1465:	53                   	push   %rbx
    1466:	48 83 ec 28          	sub    $0x28,%rsp
    146a:	64 48 8b 04 25 28 00 	mov    %fs:0x28,%rax
    1471:	00 00 
    1473:	48 89 44 24 18       	mov    %rax,0x18(%rsp)
    1478:	31 c0                	xor    %eax,%eax
    147a:	48 89 e6             	mov    %rsp,%rsi
    147d:	e8 ce 07 00 00       	callq  1c50 <read_six_numbers>
    1482:	83 3c 24 00          	cmpl   $0x0,(%rsp)
    1486:	78 0a                	js     1492 <phase_2+0x2e>
    1488:	bb 01 00 00 00       	mov    $0x1,%ebx
    148d:	48 89 e5             	mov    %rsp,%rbp
    1490:	eb 11                	jmp    14a3 <phase_2+0x3f>
    1492:	e8 7d 07 00 00       	callq  1c14 <explode_bomb>
    1497:	eb ef                	jmp    1488 <phase_2+0x24>
    1499:	48 83 c3 01          	add    $0x1,%rbx
    149d:	48 83 fb 06          	cmp    $0x6,%rbx
    14a1:	74 13                	je     14b6 <phase_2+0x52>
    14a3:	89 d8                	mov    %ebx,%eax
    14a5:	03 44 9d fc          	add    -0x4(%rbp,%rbx,4),%eax
    14a9:	39 44 9d 00          	cmp    %eax,0x0(%rbp,%rbx,4)
    14ad:	74 ea                	je     1499 <phase_2+0x35>
    14af:	e8 60 07 00 00       	callq  1c14 <explode_bomb>
    14b4:	eb e3                	jmp    1499 <phase_2+0x35>
    14b6:	48 8b 44 24 18       	mov    0x18(%rsp),%rax
    14bb:	64 48 33 04 25 28 00 	xor    %fs:0x28,%rax
    14c2:	00 00 
    14c4:	75 07                	jne    14cd <phase_2+0x69>
    14c6:	48 83 c4 28          	add    $0x28,%rsp
    14ca:	5b                   	pop    %rbx
    14cb:	5d                   	pop    %rbp
    14cc:	c3                   	retq   
    14cd:	e8 ae fb ff ff       	callq  1080 <__stack_chk_fail@plt>

00000000000014d2 <phase_3>:
    14d2:	48 83 ec 18          	sub    $0x18,%rsp
    14d6:	64 48 8b 04 25 28 00 	mov    %fs:0x28,%rax
    14dd:	00 00 
    14df:	48 89 44 24 08       	mov    %rax,0x8(%rsp)
    14e4:	31 c0                	xor    %eax,%eax
    14e6:	48 8d 4c 24 04       	lea    0x4(%rsp),%rcx
    14eb:	48 89 e2             	mov    %rsp,%rdx
    14ee:	48 8d 35 18 1a 00 00 	lea    0x1a18(%rip),%rsi        # 2f0d <array.3415+0x25d>
    14f5:	e8 26 fc ff ff       	callq  1120 <__isoc99_sscanf@plt>
    14fa:	83 f8 01             	cmp    $0x1,%eax
    14fd:	7e 19                	jle    1518 <phase_3+0x46>
    14ff:	83 3c 24 07          	cmpl   $0x7,(%rsp)
    1503:	77 4b                	ja     1550 <phase_3+0x7e>
    1505:	8b 04 24             	mov    (%rsp),%eax
    1508:	48 8d 15 81 17 00 00 	lea    0x1781(%rip),%rdx        # 2c90 <_IO_stdin_used+0x1a0>
    150f:	48 63 04 82          	movslq (%rdx,%rax,4),%rax
    1513:	48 01 d0             	add    %rdx,%rax
    1516:	ff e0                	jmpq   *%rax
    1518:	e8 f7 06 00 00       	callq  1c14 <explode_bomb>
    151d:	eb e0                	jmp    14ff <phase_3+0x2d>
    151f:	b8 8e 02 00 00       	mov    $0x28e,%eax
    1524:	eb 3b                	jmp    1561 <phase_3+0x8f>
    1526:	b8 d7 01 00 00       	mov    $0x1d7,%eax
    152b:	eb 34                	jmp    1561 <phase_3+0x8f>
    152d:	b8 7f 01 00 00       	mov    $0x17f,%eax
    1532:	eb 2d                	jmp    1561 <phase_3+0x8f>
    1534:	b8 78 03 00 00       	mov    $0x378,%eax
    1539:	eb 26                	jmp    1561 <phase_3+0x8f>
    153b:	b8 68 01 00 00       	mov    $0x168,%eax
    1540:	eb 1f                	jmp    1561 <phase_3+0x8f>
    1542:	b8 4f 02 00 00       	mov    $0x24f,%eax
    1547:	eb 18                	jmp    1561 <phase_3+0x8f>
    1549:	b8 c9 01 00 00       	mov    $0x1c9,%eax
    154e:	eb 11                	jmp    1561 <phase_3+0x8f>
    1550:	e8 bf 06 00 00       	callq  1c14 <explode_bomb>
    1555:	b8 00 00 00 00       	mov    $0x0,%eax
    155a:	eb 05                	jmp    1561 <phase_3+0x8f>
    155c:	b8 c0 00 00 00       	mov    $0xc0,%eax
    1561:	39 44 24 04          	cmp    %eax,0x4(%rsp)
    1565:	74 05                	je     156c <phase_3+0x9a>
    1567:	e8 a8 06 00 00       	callq  1c14 <explode_bomb>
    156c:	48 8b 44 24 08       	mov    0x8(%rsp),%rax
    1571:	64 48 33 04 25 28 00 	xor    %fs:0x28,%rax
    1578:	00 00 
    157a:	75 05                	jne    1581 <phase_3+0xaf>
    157c:	48 83 c4 18          	add    $0x18,%rsp
    1580:	c3                   	retq   
    1581:	e8 fa fa ff ff       	callq  1080 <__stack_chk_fail@plt>

0000000000001586 <func4>:
    1586:	b8 00 00 00 00       	mov    $0x0,%eax
    158b:	85 ff                	test   %edi,%edi
    158d:	7e 07                	jle    1596 <func4+0x10>
    158f:	89 f0                	mov    %esi,%eax
    1591:	83 ff 01             	cmp    $0x1,%edi
    1594:	75 02                	jne    1598 <func4+0x12>
    1596:	f3 c3                	repz retq 
    1598:	41 54                	push   %r12
    159a:	55                   	push   %rbp
    159b:	53                   	push   %rbx
    159c:	41 89 f4             	mov    %esi,%r12d
    159f:	89 fb                	mov    %edi,%ebx
    15a1:	8d 7f ff             	lea    -0x1(%rdi),%edi
    15a4:	e8 dd ff ff ff       	callq  1586 <func4>
    15a9:	42 8d 2c 20          	lea    (%rax,%r12,1),%ebp
    15ad:	8d 7b fe             	lea    -0x2(%rbx),%edi
    15b0:	44 89 e6             	mov    %r12d,%esi
    15b3:	e8 ce ff ff ff       	callq  1586 <func4>
    15b8:	01 e8                	add    %ebp,%eax
    15ba:	5b                   	pop    %rbx
    15bb:	5d                   	pop    %rbp
    15bc:	41 5c                	pop    %r12
    15be:	c3                   	retq   

00000000000015bf <phase_4>:
    15bf:	48 83 ec 18          	sub    $0x18,%rsp
    15c3:	64 48 8b 04 25 28 00 	mov    %fs:0x28,%rax
    15ca:	00 00 
    15cc:	48 89 44 24 08       	mov    %rax,0x8(%rsp)
    15d1:	31 c0                	xor    %eax,%eax
    15d3:	48 89 e1             	mov    %rsp,%rcx
    15d6:	48 8d 54 24 04       	lea    0x4(%rsp),%rdx
    15db:	48 8d 35 2b 19 00 00 	lea    0x192b(%rip),%rsi        # 2f0d <array.3415+0x25d>
    15e2:	e8 39 fb ff ff       	callq  1120 <__isoc99_sscanf@plt>
    15e7:	83 f8 02             	cmp    $0x2,%eax
    15ea:	75 0b                	jne    15f7 <phase_4+0x38>
    15ec:	8b 04 24             	mov    (%rsp),%eax
    15ef:	83 e8 02             	sub    $0x2,%eax
    15f2:	83 f8 02             	cmp    $0x2,%eax
    15f5:	76 05                	jbe    15fc <phase_4+0x3d>
    15f7:	e8 18 06 00 00       	callq  1c14 <explode_bomb>
    15fc:	8b 34 24             	mov    (%rsp),%esi
    15ff:	bf 07 00 00 00       	mov    $0x7,%edi
    1604:	e8 7d ff ff ff       	callq  1586 <func4>
    1609:	39 44 24 04          	cmp    %eax,0x4(%rsp)
    160d:	74 05                	je     1614 <phase_4+0x55>
    160f:	e8 00 06 00 00       	callq  1c14 <explode_bomb>
    1614:	48 8b 44 24 08       	mov    0x8(%rsp),%rax
    1619:	64 48 33 04 25 28 00 	xor    %fs:0x28,%rax
    1620:	00 00 
    1622:	75 05                	jne    1629 <phase_4+0x6a>
    1624:	48 83 c4 18          	add    $0x18,%rsp
    1628:	c3                   	retq   
    1629:	e8 52 fa ff ff       	callq  1080 <__stack_chk_fail@plt>

000000000000162e <phase_5>:
    162e:	53                   	push   %rbx
    162f:	48 83 ec 10          	sub    $0x10,%rsp
    1633:	48 89 fb             	mov    %rdi,%rbx
    1636:	64 48 8b 04 25 28 00 	mov    %fs:0x28,%rax
    163d:	00 00 
    163f:	48 89 44 24 08       	mov    %rax,0x8(%rsp)
    1644:	31 c0                	xor    %eax,%eax
    1646:	e8 a8 02 00 00       	callq  18f3 <string_length>
    164b:	83 f8 06             	cmp    $0x6,%eax
    164e:	75 55                	jne    16a5 <phase_5+0x77>
    1650:	b8 00 00 00 00       	mov    $0x0,%eax
    1655:	48 8d 0d 54 16 00 00 	lea    0x1654(%rip),%rcx        # 2cb0 <array.3415>
    165c:	0f b6 14 03          	movzbl (%rbx,%rax,1),%edx
    1660:	83 e2 0f             	and    $0xf,%edx
    1663:	0f b6 14 11          	movzbl (%rcx,%rdx,1),%edx
    1667:	88 54 04 01          	mov    %dl,0x1(%rsp,%rax,1)
    166b:	48 83 c0 01          	add    $0x1,%rax
    166f:	48 83 f8 06          	cmp    $0x6,%rax
    1673:	75 e7                	jne    165c <phase_5+0x2e>
    1675:	c6 44 24 07 00       	movb   $0x0,0x7(%rsp)
    167a:	48 8d 7c 24 01       	lea    0x1(%rsp),%rdi
    167f:	48 8d 35 00 16 00 00 	lea    0x1600(%rip),%rsi        # 2c86 <_IO_stdin_used+0x196>
    1686:	e8 85 02 00 00       	callq  1910 <strings_not_equal>
    168b:	85 c0                	test   %eax,%eax
    168d:	75 1d                	jne    16ac <phase_5+0x7e>
    168f:	48 8b 44 24 08       	mov    0x8(%rsp),%rax
    1694:	64 48 33 04 25 28 00 	xor    %fs:0x28,%rax
    169b:	00 00 
    169d:	75 14                	jne    16b3 <phase_5+0x85>
    169f:	48 83 c4 10          	add    $0x10,%rsp
    16a3:	5b                   	pop    %rbx
    16a4:	c3                   	retq   
    16a5:	e8 6a 05 00 00       	callq  1c14 <explode_bomb>
    16aa:	eb a4                	jmp    1650 <phase_5+0x22>
    16ac:	e8 63 05 00 00       	callq  1c14 <explode_bomb>
    16b1:	eb dc                	jmp    168f <phase_5+0x61>
    16b3:	e8 c8 f9 ff ff       	callq  1080 <__stack_chk_fail@plt>

00000000000016b8 <phase_6>:
    16b8:	41 55                	push   %r13
    16ba:	41 54                	push   %r12
    16bc:	55                   	push   %rbp
    16bd:	53                   	push   %rbx
    16be:	48 83 ec 68          	sub    $0x68,%rsp
    16c2:	64 48 8b 04 25 28 00 	mov    %fs:0x28,%rax
    16c9:	00 00 
    16cb:	48 89 44 24 58       	mov    %rax,0x58(%rsp)
    16d0:	31 c0                	xor    %eax,%eax
    16d2:	49 89 e4             	mov    %rsp,%r12
    16d5:	4c 89 e6             	mov    %r12,%rsi
    16d8:	e8 73 05 00 00       	callq  1c50 <read_six_numbers>
    16dd:	41 bd 00 00 00 00    	mov    $0x0,%r13d
    16e3:	eb 25                	jmp    170a <phase_6+0x52>
    16e5:	e8 2a 05 00 00       	callq  1c14 <explode_bomb>
    16ea:	eb 2d                	jmp    1719 <phase_6+0x61>
    16ec:	83 c3 01             	add    $0x1,%ebx
    16ef:	83 fb 05             	cmp    $0x5,%ebx
    16f2:	7f 12                	jg     1706 <phase_6+0x4e>
    16f4:	48 63 c3             	movslq %ebx,%rax
    16f7:	8b 04 84             	mov    (%rsp,%rax,4),%eax
    16fa:	39 45 00             	cmp    %eax,0x0(%rbp)
    16fd:	75 ed                	jne    16ec <phase_6+0x34>
    16ff:	e8 10 05 00 00       	callq  1c14 <explode_bomb>
    1704:	eb e6                	jmp    16ec <phase_6+0x34>
    1706:	49 83 c4 04          	add    $0x4,%r12
    170a:	4c 89 e5             	mov    %r12,%rbp
    170d:	41 8b 04 24          	mov    (%r12),%eax
    1711:	83 e8 01             	sub    $0x1,%eax
    1714:	83 f8 05             	cmp    $0x5,%eax
    1717:	77 cc                	ja     16e5 <phase_6+0x2d>
    1719:	41 83 c5 01          	add    $0x1,%r13d
    171d:	41 83 fd 06          	cmp    $0x6,%r13d
    1721:	74 35                	je     1758 <phase_6+0xa0>
    1723:	44 89 eb             	mov    %r13d,%ebx
    1726:	eb cc                	jmp    16f4 <phase_6+0x3c>
    1728:	48 8b 52 08          	mov    0x8(%rdx),%rdx
    172c:	83 c0 01             	add    $0x1,%eax
    172f:	39 c8                	cmp    %ecx,%eax
    1731:	75 f5                	jne    1728 <phase_6+0x70>
    1733:	48 89 54 f4 20       	mov    %rdx,0x20(%rsp,%rsi,8)
    1738:	48 83 c6 01          	add    $0x1,%rsi
    173c:	48 83 fe 06          	cmp    $0x6,%rsi
    1740:	74 1d                	je     175f <phase_6+0xa7>
    1742:	8b 0c b4             	mov    (%rsp,%rsi,4),%ecx
    1745:	b8 01 00 00 00       	mov    $0x1,%eax
    174a:	48 8d 15 cf 2a 20 00 	lea    0x202acf(%rip),%rdx        # 204220 <node1>
    1751:	83 f9 01             	cmp    $0x1,%ecx
    1754:	7f d2                	jg     1728 <phase_6+0x70>
    1756:	eb db                	jmp    1733 <phase_6+0x7b>
    1758:	be 00 00 00 00       	mov    $0x0,%esi
    175d:	eb e3                	jmp    1742 <phase_6+0x8a>
    175f:	48 8b 5c 24 20       	mov    0x20(%rsp),%rbx
    1764:	48 8b 44 24 28       	mov    0x28(%rsp),%rax
    1769:	48 89 43 08          	mov    %rax,0x8(%rbx)
    176d:	48 8b 54 24 30       	mov    0x30(%rsp),%rdx
    1772:	48 89 50 08          	mov    %rdx,0x8(%rax)
    1776:	48 8b 44 24 38       	mov    0x38(%rsp),%rax
    177b:	48 89 42 08          	mov    %rax,0x8(%rdx)
    177f:	48 8b 54 24 40       	mov    0x40(%rsp),%rdx
    1784:	48 89 50 08          	mov    %rdx,0x8(%rax)
    1788:	48 8b 44 24 48       	mov    0x48(%rsp),%rax
    178d:	48 89 42 08          	mov    %rax,0x8(%rdx)
    1791:	48 c7 40 08 00 00 00 	movq   $0x0,0x8(%rax)
    1798:	00 
    1799:	bd 05 00 00 00       	mov    $0x5,%ebp
    179e:	eb 09                	jmp    17a9 <phase_6+0xf1>
    17a0:	48 8b 5b 08          	mov    0x8(%rbx),%rbx
    17a4:	83 ed 01             	sub    $0x1,%ebp
    17a7:	74 11                	je     17ba <phase_6+0x102>
    17a9:	48 8b 43 08          	mov    0x8(%rbx),%rax
    17ad:	8b 00                	mov    (%rax),%eax
    17af:	39 03                	cmp    %eax,(%rbx)
    17b1:	7d ed                	jge    17a0 <phase_6+0xe8>
    17b3:	e8 5c 04 00 00       	callq  1c14 <explode_bomb>
    17b8:	eb e6                	jmp    17a0 <phase_6+0xe8>
    17ba:	48 8b 44 24 58       	mov    0x58(%rsp),%rax
    17bf:	64 48 33 04 25 28 00 	xor    %fs:0x28,%rax
    17c6:	00 00 
    17c8:	75 0b                	jne    17d5 <phase_6+0x11d>
    17ca:	48 83 c4 68          	add    $0x68,%rsp
    17ce:	5b                   	pop    %rbx
    17cf:	5d                   	pop    %rbp
    17d0:	41 5c                	pop    %r12
    17d2:	41 5d                	pop    %r13
    17d4:	c3                   	retq   
    17d5:	e8 a6 f8 ff ff       	callq  1080 <__stack_chk_fail@plt>

00000000000017da <fun7>:
    17da:	48 85 ff             	test   %rdi,%rdi
    17dd:	74 34                	je     1813 <fun7+0x39>
    17df:	48 83 ec 08          	sub    $0x8,%rsp
    17e3:	8b 17                	mov    (%rdi),%edx
    17e5:	39 f2                	cmp    %esi,%edx
    17e7:	7f 0e                	jg     17f7 <fun7+0x1d>
    17e9:	b8 00 00 00 00       	mov    $0x0,%eax
    17ee:	39 f2                	cmp    %esi,%edx
    17f0:	75 12                	jne    1804 <fun7+0x2a>
    17f2:	48 83 c4 08          	add    $0x8,%rsp
    17f6:	c3                   	retq   
    17f7:	48 8b 7f 08          	mov    0x8(%rdi),%rdi
    17fb:	e8 da ff ff ff       	callq  17da <fun7>
    1800:	01 c0                	add    %eax,%eax
    1802:	eb ee                	jmp    17f2 <fun7+0x18>
    1804:	48 8b 7f 10          	mov    0x10(%rdi),%rdi
    1808:	e8 cd ff ff ff       	callq  17da <fun7>
    180d:	8d 44 00 01          	lea    0x1(%rax,%rax,1),%eax
    1811:	eb df                	jmp    17f2 <fun7+0x18>
    1813:	b8 ff ff ff ff       	mov    $0xffffffff,%eax
    1818:	c3                   	retq   

0000000000001819 <secret_phase>:
    1819:	53                   	push   %rbx
    181a:	e8 72 04 00 00       	callq  1c91 <read_line>
    181f:	ba 0a 00 00 00       	mov    $0xa,%edx
    1824:	be 00 00 00 00       	mov    $0x0,%esi
    1829:	48 89 c7             	mov    %rax,%rdi
    182c:	e8 cf f8 ff ff       	callq  1100 <strtol@plt>
    1831:	48 89 c3             	mov    %rax,%rbx
    1834:	8d 40 ff             	lea    -0x1(%rax),%eax
    1837:	3d e8 03 00 00       	cmp    $0x3e8,%eax
    183c:	77 2b                	ja     1869 <secret_phase+0x50>
    183e:	89 de                	mov    %ebx,%esi
    1840:	48 8d 3d f9 28 20 00 	lea    0x2028f9(%rip),%rdi        # 204140 <n1>
    1847:	e8 8e ff ff ff       	callq  17da <fun7>
    184c:	83 f8 03             	cmp    $0x3,%eax
    184f:	74 05                	je     1856 <secret_phase+0x3d>
    1851:	e8 be 03 00 00       	callq  1c14 <explode_bomb>
    1856:	48 8d 3d 03 14 00 00 	lea    0x1403(%rip),%rdi        # 2c60 <_IO_stdin_used+0x170>
    185d:	e8 fe f7 ff ff       	callq  1060 <puts@plt>
    1862:	e8 6e 05 00 00       	callq  1dd5 <phase_defused>
    1867:	5b                   	pop    %rbx
    1868:	c3                   	retq   
    1869:	e8 a6 03 00 00       	callq  1c14 <explode_bomb>
    186e:	eb ce                	jmp    183e <secret_phase+0x25>

0000000000001870 <sig_handler>:
    1870:	48 83 ec 08          	sub    $0x8,%rsp
    1874:	48 8d 3d 45 14 00 00 	lea    0x1445(%rip),%rdi        # 2cc0 <array.3415+0x10>
    187b:	e8 e0 f7 ff ff       	callq  1060 <puts@plt>
    1880:	bf 03 00 00 00       	mov    $0x3,%edi
    1885:	e8 06 f9 ff ff       	callq  1190 <sleep@plt>
    188a:	48 8d 35 f8 15 00 00 	lea    0x15f8(%rip),%rsi        # 2e89 <array.3415+0x1d9>
    1891:	bf 01 00 00 00       	mov    $0x1,%edi
    1896:	b8 00 00 00 00       	mov    $0x0,%eax
    189b:	e8 90 f8 ff ff       	callq  1130 <__printf_chk@plt>
    18a0:	48 8b 3d d9 2d 20 00 	mov    0x202dd9(%rip),%rdi        # 204680 <stdout@@GLIBC_2.2.5>
    18a7:	e8 64 f8 ff ff       	callq  1110 <fflush@plt>
    18ac:	bf 01 00 00 00       	mov    $0x1,%edi
    18b1:	e8 da f8 ff ff       	callq  1190 <sleep@plt>
    18b6:	48 8d 3d d4 15 00 00 	lea    0x15d4(%rip),%rdi        # 2e91 <array.3415+0x1e1>
    18bd:	e8 9e f7 ff ff       	callq  1060 <puts@plt>
    18c2:	bf 10 00 00 00       	mov    $0x10,%edi
    18c7:	e8 94 f8 ff ff       	callq  1160 <exit@plt>

00000000000018cc <invalid_phase>:
    18cc:	48 83 ec 08          	sub    $0x8,%rsp
    18d0:	48 89 fa             	mov    %rdi,%rdx
    18d3:	48 8d 35 bf 15 00 00 	lea    0x15bf(%rip),%rsi        # 2e99 <array.3415+0x1e9>
    18da:	bf 01 00 00 00       	mov    $0x1,%edi
    18df:	b8 00 00 00 00       	mov    $0x0,%eax
    18e4:	e8 47 f8 ff ff       	callq  1130 <__printf_chk@plt>
    18e9:	bf 08 00 00 00       	mov    $0x8,%edi
    18ee:	e8 6d f8 ff ff       	callq  1160 <exit@plt>

00000000000018f3 <string_length>:
    18f3:	80 3f 00             	cmpb   $0x0,(%rdi)
    18f6:	74 12                	je     190a <string_length+0x17>
    18f8:	48 89 fa             	mov    %rdi,%rdx
    18fb:	48 83 c2 01          	add    $0x1,%rdx
    18ff:	89 d0                	mov    %edx,%eax
    1901:	29 f8                	sub    %edi,%eax
    1903:	80 3a 00             	cmpb   $0x0,(%rdx)
    1906:	75 f3                	jne    18fb <string_length+0x8>
    1908:	f3 c3                	repz retq 
    190a:	b8 00 00 00 00       	mov    $0x0,%eax
    190f:	c3                   	retq   

0000000000001910 <strings_not_equal>:
    1910:	41 54                	push   %r12
    1912:	55                   	push   %rbp
    1913:	53                   	push   %rbx
    1914:	48 89 fb             	mov    %rdi,%rbx
    1917:	48 89 f5             	mov    %rsi,%rbp
    191a:	e8 d4 ff ff ff       	callq  18f3 <string_length>
    191f:	41 89 c4             	mov    %eax,%r12d
    1922:	48 89 ef             	mov    %rbp,%rdi
    1925:	e8 c9 ff ff ff       	callq  18f3 <string_length>
    192a:	ba 01 00 00 00       	mov    $0x1,%edx
    192f:	41 39 c4             	cmp    %eax,%r12d
    1932:	74 07                	je     193b <strings_not_equal+0x2b>
    1934:	89 d0                	mov    %edx,%eax
    1936:	5b                   	pop    %rbx
    1937:	5d                   	pop    %rbp
    1938:	41 5c                	pop    %r12
    193a:	c3                   	retq   
    193b:	0f b6 03             	movzbl (%rbx),%eax
    193e:	84 c0                	test   %al,%al
    1940:	74 27                	je     1969 <strings_not_equal+0x59>
    1942:	3a 45 00             	cmp    0x0(%rbp),%al
    1945:	75 29                	jne    1970 <strings_not_equal+0x60>
    1947:	48 83 c3 01          	add    $0x1,%rbx
    194b:	48 83 c5 01          	add    $0x1,%rbp
    194f:	0f b6 03             	movzbl (%rbx),%eax
    1952:	84 c0                	test   %al,%al
    1954:	74 0c                	je     1962 <strings_not_equal+0x52>
    1956:	38 45 00             	cmp    %al,0x0(%rbp)
    1959:	74 ec                	je     1947 <strings_not_equal+0x37>
    195b:	ba 01 00 00 00       	mov    $0x1,%edx
    1960:	eb d2                	jmp    1934 <strings_not_equal+0x24>
    1962:	ba 00 00 00 00       	mov    $0x0,%edx
    1967:	eb cb                	jmp    1934 <strings_not_equal+0x24>
    1969:	ba 00 00 00 00       	mov    $0x0,%edx
    196e:	eb c4                	jmp    1934 <strings_not_equal+0x24>
    1970:	ba 01 00 00 00       	mov    $0x1,%edx
    1975:	eb bd                	jmp    1934 <strings_not_equal+0x24>

0000000000001977 <initialize_bomb>:
    1977:	55                   	push   %rbp
    1978:	53                   	push   %rbx
    1979:	48 81 ec 58 20 00 00 	sub    $0x2058,%rsp
    1980:	64 48 8b 04 25 28 00 	mov    %fs:0x28,%rax
    1987:	00 00 
    1989:	48 89 84 24 48 20 00 	mov    %rax,0x2048(%rsp)
    1990:	00 
    1991:	31 c0                	xor    %eax,%eax
    1993:	48 8d 35 d6 fe ff ff 	lea    -0x12a(%rip),%rsi        # 1870 <sig_handler>
    199a:	bf 02 00 00 00       	mov    $0x2,%edi
    199f:	e8 2c f7 ff ff       	callq  10d0 <signal@plt>
    19a4:	48 89 e7             	mov    %rsp,%rdi
    19a7:	be 40 00 00 00       	mov    $0x40,%esi
    19ac:	e8 9f f7 ff ff       	callq  1150 <gethostname@plt>
    19b1:	85 c0                	test   %eax,%eax
    19b3:	75 45                	jne    19fa <initialize_bomb+0x83>
    19b5:	48 8b 3d c4 28 20 00 	mov    0x2028c4(%rip),%rdi        # 204280 <host_table>
    19bc:	48 8d 1d c5 28 20 00 	lea    0x2028c5(%rip),%rbx        # 204288 <host_table+0x8>
    19c3:	48 89 e5             	mov    %rsp,%rbp
    19c6:	48 85 ff             	test   %rdi,%rdi
    19c9:	74 19                	je     19e4 <initialize_bomb+0x6d>
    19cb:	48 89 ee             	mov    %rbp,%rsi
    19ce:	e8 5d f6 ff ff       	callq  1030 <strcasecmp@plt>
    19d3:	85 c0                	test   %eax,%eax
    19d5:	74 5e                	je     1a35 <initialize_bomb+0xbe>
    19d7:	48 83 c3 08          	add    $0x8,%rbx
    19db:	48 8b 7b f8          	mov    -0x8(%rbx),%rdi
    19df:	48 85 ff             	test   %rdi,%rdi
    19e2:	75 e7                	jne    19cb <initialize_bomb+0x54>
    19e4:	48 8d 3d 45 13 00 00 	lea    0x1345(%rip),%rdi        # 2d30 <array.3415+0x80>
    19eb:	e8 70 f6 ff ff       	callq  1060 <puts@plt>
    19f0:	bf 08 00 00 00       	mov    $0x8,%edi
    19f5:	e8 66 f7 ff ff       	callq  1160 <exit@plt>
    19fa:	48 8d 3d f7 12 00 00 	lea    0x12f7(%rip),%rdi        # 2cf8 <array.3415+0x48>
    1a01:	e8 5a f6 ff ff       	callq  1060 <puts@plt>
    1a06:	bf 08 00 00 00       	mov    $0x8,%edi
    1a0b:	e8 50 f7 ff ff       	callq  1160 <exit@plt>
    1a10:	48 8d 54 24 40       	lea    0x40(%rsp),%rdx
    1a15:	48 8d 35 8e 14 00 00 	lea    0x148e(%rip),%rsi        # 2eaa <array.3415+0x1fa>
    1a1c:	bf 01 00 00 00       	mov    $0x1,%edi
    1a21:	b8 00 00 00 00       	mov    $0x0,%eax
    1a26:	e8 05 f7 ff ff       	callq  1130 <__printf_chk@plt>
    1a2b:	bf 08 00 00 00       	mov    $0x8,%edi
    1a30:	e8 2b f7 ff ff       	callq  1160 <exit@plt>
    1a35:	48 8d 7c 24 40       	lea    0x40(%rsp),%rdi
    1a3a:	e8 b2 0d 00 00       	callq  27f1 <init_driver>
    1a3f:	85 c0                	test   %eax,%eax
    1a41:	78 cd                	js     1a10 <initialize_bomb+0x99>
    1a43:	48 8b 84 24 48 20 00 	mov    0x2048(%rsp),%rax
    1a4a:	00 
    1a4b:	64 48 33 04 25 28 00 	xor    %fs:0x28,%rax
    1a52:	00 00 
    1a54:	75 0a                	jne    1a60 <initialize_bomb+0xe9>
    1a56:	48 81 c4 58 20 00 00 	add    $0x2058,%rsp
    1a5d:	5b                   	pop    %rbx
    1a5e:	5d                   	pop    %rbp
    1a5f:	c3                   	retq   
    1a60:	e8 1b f6 ff ff       	callq  1080 <__stack_chk_fail@plt>

0000000000001a65 <initialize_bomb_solve>:
    1a65:	f3 c3                	repz retq 

0000000000001a67 <blank_line>:
    1a67:	55                   	push   %rbp
    1a68:	53                   	push   %rbx
    1a69:	48 83 ec 08          	sub    $0x8,%rsp
    1a6d:	48 89 fd             	mov    %rdi,%rbp
    1a70:	0f b6 5d 00          	movzbl 0x0(%rbp),%ebx
    1a74:	84 db                	test   %bl,%bl
    1a76:	74 1e                	je     1a96 <blank_line+0x2f>
    1a78:	e8 23 f7 ff ff       	callq  11a0 <__ctype_b_loc@plt>
    1a7d:	48 83 c5 01          	add    $0x1,%rbp
    1a81:	48 0f be db          	movsbq %bl,%rbx
    1a85:	48 8b 00             	mov    (%rax),%rax
    1a88:	f6 44 58 01 20       	testb  $0x20,0x1(%rax,%rbx,2)
    1a8d:	75 e1                	jne    1a70 <blank_line+0x9>
    1a8f:	b8 00 00 00 00       	mov    $0x0,%eax
    1a94:	eb 05                	jmp    1a9b <blank_line+0x34>
    1a96:	b8 01 00 00 00       	mov    $0x1,%eax
    1a9b:	48 83 c4 08          	add    $0x8,%rsp
    1a9f:	5b                   	pop    %rbx
    1aa0:	5d                   	pop    %rbp
    1aa1:	c3                   	retq   

0000000000001aa2 <skip>:
    1aa2:	55                   	push   %rbp
    1aa3:	53                   	push   %rbx
    1aa4:	48 83 ec 08          	sub    $0x8,%rsp
    1aa8:	48 8d 2d 11 2c 20 00 	lea    0x202c11(%rip),%rbp        # 2046c0 <input_strings>
    1aaf:	48 63 05 f6 2b 20 00 	movslq 0x202bf6(%rip),%rax        # 2046ac <num_input_strings>
    1ab6:	48 8d 3c 80          	lea    (%rax,%rax,4),%rdi
    1aba:	48 c1 e7 04          	shl    $0x4,%rdi
    1abe:	48 01 ef             	add    %rbp,%rdi
    1ac1:	48 8b 15 e8 2b 20 00 	mov    0x202be8(%rip),%rdx        # 2046b0 <infile>
    1ac8:	be 50 00 00 00       	mov    $0x50,%esi
    1acd:	e8 ee f5 ff ff       	callq  10c0 <fgets@plt>
    1ad2:	48 89 c3             	mov    %rax,%rbx
    1ad5:	48 85 c0             	test   %rax,%rax
    1ad8:	74 0c                	je     1ae6 <skip+0x44>
    1ada:	48 89 c7             	mov    %rax,%rdi
    1add:	e8 85 ff ff ff       	callq  1a67 <blank_line>
    1ae2:	85 c0                	test   %eax,%eax
    1ae4:	75 c9                	jne    1aaf <skip+0xd>
    1ae6:	48 89 d8             	mov    %rbx,%rax
    1ae9:	48 83 c4 08          	add    $0x8,%rsp
    1aed:	5b                   	pop    %rbx
    1aee:	5d                   	pop    %rbp
    1aef:	c3                   	retq   

0000000000001af0 <send_msg>:
    1af0:	53                   	push   %rbx
    1af1:	48 81 ec 10 40 00 00 	sub    $0x4010,%rsp
    1af8:	41 89 f8             	mov    %edi,%r8d
    1afb:	64 48 8b 04 25 28 00 	mov    %fs:0x28,%rax
    1b02:	00 00 
    1b04:	48 89 84 24 08 40 00 	mov    %rax,0x4008(%rsp)
    1b0b:	00 
    1b0c:	31 c0                	xor    %eax,%eax
    1b0e:	8b 35 98 2b 20 00    	mov    0x202b98(%rip),%esi        # 2046ac <num_input_strings>
    1b14:	8d 46 ff             	lea    -0x1(%rsi),%eax
    1b17:	48 98                	cltq   
    1b19:	48 8d 14 80          	lea    (%rax,%rax,4),%rdx
    1b1d:	48 c1 e2 04          	shl    $0x4,%rdx
    1b21:	48 8d 05 98 2b 20 00 	lea    0x202b98(%rip),%rax        # 2046c0 <input_strings>
    1b28:	48 01 c2             	add    %rax,%rdx
    1b2b:	48 c7 c1 ff ff ff ff 	mov    $0xffffffffffffffff,%rcx
    1b32:	b8 00 00 00 00       	mov    $0x0,%eax
    1b37:	48 89 d7             	mov    %rdx,%rdi
    1b3a:	f2 ae                	repnz scas %es:(%rdi),%al
    1b3c:	48 89 c8             	mov    %rcx,%rax
    1b3f:	48 f7 d0             	not    %rax
    1b42:	48 83 c0 63          	add    $0x63,%rax
    1b46:	48 3d 00 20 00 00    	cmp    $0x2000,%rax
    1b4c:	0f 87 86 00 00 00    	ja     1bd8 <send_msg+0xe8>
    1b52:	45 85 c0             	test   %r8d,%r8d
    1b55:	4c 8d 0d 68 13 00 00 	lea    0x1368(%rip),%r9        # 2ec4 <array.3415+0x214>
    1b5c:	48 8d 05 69 13 00 00 	lea    0x1369(%rip),%rax        # 2ecc <array.3415+0x21c>
    1b63:	4c 0f 44 c8          	cmove  %rax,%r9
    1b67:	48 89 e3             	mov    %rsp,%rbx
    1b6a:	52                   	push   %rdx
    1b6b:	56                   	push   %rsi
    1b6c:	44 8b 05 c9 25 20 00 	mov    0x2025c9(%rip),%r8d        # 20413c <bomb_id>
    1b73:	48 8d 0d 5b 13 00 00 	lea    0x135b(%rip),%rcx        # 2ed5 <array.3415+0x225>
    1b7a:	ba 00 20 00 00       	mov    $0x2000,%edx
    1b7f:	be 01 00 00 00       	mov    $0x1,%esi
    1b84:	48 89 df             	mov    %rbx,%rdi
    1b87:	b8 00 00 00 00       	mov    $0x0,%eax
    1b8c:	e8 1f f6 ff ff       	callq  11b0 <__sprintf_chk@plt>
    1b91:	4c 8d 84 24 10 20 00 	lea    0x2010(%rsp),%r8
    1b98:	00 
    1b99:	b9 00 00 00 00       	mov    $0x0,%ecx
    1b9e:	48 89 da             	mov    %rbx,%rdx
    1ba1:	48 8d 35 78 25 20 00 	lea    0x202578(%rip),%rsi        # 204120 <user_password>
    1ba8:	48 8d 3d 86 25 20 00 	lea    0x202586(%rip),%rdi        # 204135 <userid>
    1baf:	e8 46 0e 00 00       	callq  29fa <driver_post>
    1bb4:	48 83 c4 10          	add    $0x10,%rsp
    1bb8:	85 c0                	test   %eax,%eax
    1bba:	78 3c                	js     1bf8 <send_msg+0x108>
    1bbc:	48 8b 84 24 08 40 00 	mov    0x4008(%rsp),%rax
    1bc3:	00 
    1bc4:	64 48 33 04 25 28 00 	xor    %fs:0x28,%rax
    1bcb:	00 00 
    1bcd:	75 40                	jne    1c0f <send_msg+0x11f>
    1bcf:	48 81 c4 10 40 00 00 	add    $0x4010,%rsp
    1bd6:	5b                   	pop    %rbx
    1bd7:	c3                   	retq   
    1bd8:	48 8d 35 89 11 00 00 	lea    0x1189(%rip),%rsi        # 2d68 <array.3415+0xb8>
    1bdf:	bf 01 00 00 00       	mov    $0x1,%edi
    1be4:	b8 00 00 00 00       	mov    $0x0,%eax
    1be9:	e8 42 f5 ff ff       	callq  1130 <__printf_chk@plt>
    1bee:	bf 08 00 00 00       	mov    $0x8,%edi
    1bf3:	e8 68 f5 ff ff       	callq  1160 <exit@plt>
    1bf8:	48 8d bc 24 00 20 00 	lea    0x2000(%rsp),%rdi
    1bff:	00 
    1c00:	e8 5b f4 ff ff       	callq  1060 <puts@plt>
    1c05:	bf 00 00 00 00       	mov    $0x0,%edi
    1c0a:	e8 51 f5 ff ff       	callq  1160 <exit@plt>
    1c0f:	e8 6c f4 ff ff       	callq  1080 <__stack_chk_fail@plt>

0000000000001c14 <explode_bomb>:
    1c14:	48 83 ec 08          	sub    $0x8,%rsp
    1c18:	48 8d 3d c2 12 00 00 	lea    0x12c2(%rip),%rdi        # 2ee1 <array.3415+0x231>
    1c1f:	e8 3c f4 ff ff       	callq  1060 <puts@plt>
    1c24:	48 8d 3d bf 12 00 00 	lea    0x12bf(%rip),%rdi        # 2eea <array.3415+0x23a>
    1c2b:	e8 30 f4 ff ff       	callq  1060 <puts@plt>
    1c30:	bf 00 00 00 00       	mov    $0x0,%edi
    1c35:	e8 b6 fe ff ff       	callq  1af0 <send_msg>
    1c3a:	48 8d 3d 4f 11 00 00 	lea    0x114f(%rip),%rdi        # 2d90 <array.3415+0xe0>
    1c41:	e8 1a f4 ff ff       	callq  1060 <puts@plt>
    1c46:	bf 08 00 00 00       	mov    $0x8,%edi
    1c4b:	e8 10 f5 ff ff       	callq  1160 <exit@plt>

0000000000001c50 <read_six_numbers>:
    1c50:	48 83 ec 08          	sub    $0x8,%rsp
    1c54:	48 89 f2             	mov    %rsi,%rdx
    1c57:	48 8d 4e 04          	lea    0x4(%rsi),%rcx
    1c5b:	48 8d 46 14          	lea    0x14(%rsi),%rax
    1c5f:	50                   	push   %rax
    1c60:	48 8d 46 10          	lea    0x10(%rsi),%rax
    1c64:	50                   	push   %rax
    1c65:	4c 8d 4e 0c          	lea    0xc(%rsi),%r9
    1c69:	4c 8d 46 08          	lea    0x8(%rsi),%r8
    1c6d:	48 8d 35 8d 12 00 00 	lea    0x128d(%rip),%rsi        # 2f01 <array.3415+0x251>
    1c74:	b8 00 00 00 00       	mov    $0x0,%eax
    1c79:	e8 a2 f4 ff ff       	callq  1120 <__isoc99_sscanf@plt>
    1c7e:	48 83 c4 10          	add    $0x10,%rsp
    1c82:	83 f8 05             	cmp    $0x5,%eax
    1c85:	7e 05                	jle    1c8c <read_six_numbers+0x3c>
    1c87:	48 83 c4 08          	add    $0x8,%rsp
    1c8b:	c3                   	retq   
    1c8c:	e8 83 ff ff ff       	callq  1c14 <explode_bomb>

0000000000001c91 <read_line>:
    1c91:	48 83 ec 08          	sub    $0x8,%rsp
    1c95:	b8 00 00 00 00       	mov    $0x0,%eax
    1c9a:	e8 03 fe ff ff       	callq  1aa2 <skip>
    1c9f:	48 85 c0             	test   %rax,%rax
    1ca2:	74 6f                	je     1d13 <read_line+0x82>
    1ca4:	8b 35 02 2a 20 00    	mov    0x202a02(%rip),%esi        # 2046ac <num_input_strings>
    1caa:	48 63 c6             	movslq %esi,%rax
    1cad:	48 8d 14 80          	lea    (%rax,%rax,4),%rdx
    1cb1:	48 c1 e2 04          	shl    $0x4,%rdx
    1cb5:	48 8d 05 04 2a 20 00 	lea    0x202a04(%rip),%rax        # 2046c0 <input_strings>
    1cbc:	48 01 c2             	add    %rax,%rdx
    1cbf:	48 c7 c1 ff ff ff ff 	mov    $0xffffffffffffffff,%rcx
    1cc6:	b8 00 00 00 00       	mov    $0x0,%eax
    1ccb:	48 89 d7             	mov    %rdx,%rdi
    1cce:	f2 ae                	repnz scas %es:(%rdi),%al
    1cd0:	48 f7 d1             	not    %rcx
    1cd3:	48 83 e9 01          	sub    $0x1,%rcx
    1cd7:	83 f9 4e             	cmp    $0x4e,%ecx
    1cda:	0f 8f ab 00 00 00    	jg     1d8b <read_line+0xfa>
    1ce0:	83 e9 01             	sub    $0x1,%ecx
    1ce3:	48 63 c9             	movslq %ecx,%rcx
    1ce6:	48 63 c6             	movslq %esi,%rax
    1ce9:	48 8d 04 80          	lea    (%rax,%rax,4),%rax
    1ced:	48 c1 e0 04          	shl    $0x4,%rax
    1cf1:	48 89 c7             	mov    %rax,%rdi
    1cf4:	48 8d 05 c5 29 20 00 	lea    0x2029c5(%rip),%rax        # 2046c0 <input_strings>
    1cfb:	48 01 f8             	add    %rdi,%rax
    1cfe:	c6 04 08 00          	movb   $0x0,(%rax,%rcx,1)
    1d02:	83 c6 01             	add    $0x1,%esi
    1d05:	89 35 a1 29 20 00    	mov    %esi,0x2029a1(%rip)        # 2046ac <num_input_strings>
    1d0b:	48 89 d0             	mov    %rdx,%rax
    1d0e:	48 83 c4 08          	add    $0x8,%rsp
    1d12:	c3                   	retq   
    1d13:	48 8b 05 76 29 20 00 	mov    0x202976(%rip),%rax        # 204690 <stdin@@GLIBC_2.2.5>
    1d1a:	48 39 05 8f 29 20 00 	cmp    %rax,0x20298f(%rip)        # 2046b0 <infile>
    1d21:	74 1b                	je     1d3e <read_line+0xad>
    1d23:	48 8d 3d 07 12 00 00 	lea    0x1207(%rip),%rdi        # 2f31 <array.3415+0x281>
    1d2a:	e8 f1 f2 ff ff       	callq  1020 <getenv@plt>
    1d2f:	48 85 c0             	test   %rax,%rax
    1d32:	74 20                	je     1d54 <read_line+0xc3>
    1d34:	bf 00 00 00 00       	mov    $0x0,%edi
    1d39:	e8 22 f4 ff ff       	callq  1160 <exit@plt>
    1d3e:	48 8d 3d ce 11 00 00 	lea    0x11ce(%rip),%rdi        # 2f13 <array.3415+0x263>
    1d45:	e8 16 f3 ff ff       	callq  1060 <puts@plt>
    1d4a:	bf 08 00 00 00       	mov    $0x8,%edi
    1d4f:	e8 0c f4 ff ff       	callq  1160 <exit@plt>
    1d54:	48 8b 05 35 29 20 00 	mov    0x202935(%rip),%rax        # 204690 <stdin@@GLIBC_2.2.5>
    1d5b:	48 89 05 4e 29 20 00 	mov    %rax,0x20294e(%rip)        # 2046b0 <infile>
    1d62:	b8 00 00 00 00       	mov    $0x0,%eax
    1d67:	e8 36 fd ff ff       	callq  1aa2 <skip>
    1d6c:	48 85 c0             	test   %rax,%rax
    1d6f:	0f 85 2f ff ff ff    	jne    1ca4 <read_line+0x13>
    1d75:	48 8d 3d 97 11 00 00 	lea    0x1197(%rip),%rdi        # 2f13 <array.3415+0x263>
    1d7c:	e8 df f2 ff ff       	callq  1060 <puts@plt>
    1d81:	bf 00 00 00 00       	mov    $0x0,%edi
    1d86:	e8 d5 f3 ff ff       	callq  1160 <exit@plt>
    1d8b:	48 8d 3d aa 11 00 00 	lea    0x11aa(%rip),%rdi        # 2f3c <array.3415+0x28c>
    1d92:	e8 c9 f2 ff ff       	callq  1060 <puts@plt>
    1d97:	8b 05 0f 29 20 00    	mov    0x20290f(%rip),%eax        # 2046ac <num_input_strings>
    1d9d:	8d 50 01             	lea    0x1(%rax),%edx
    1da0:	89 15 06 29 20 00    	mov    %edx,0x202906(%rip)        # 2046ac <num_input_strings>
    1da6:	48 98                	cltq   
    1da8:	48 6b c0 50          	imul   $0x50,%rax,%rax
    1dac:	48 8d 15 0d 29 20 00 	lea    0x20290d(%rip),%rdx        # 2046c0 <input_strings>
    1db3:	48 be 2a 2a 2a 74 72 	movabs $0x636e7572742a2a2a,%rsi
    1dba:	75 6e 63 
    1dbd:	48 bf 61 74 65 64 2a 	movabs $0x2a2a2a64657461,%rdi
    1dc4:	2a 2a 00 
    1dc7:	48 89 34 02          	mov    %rsi,(%rdx,%rax,1)
    1dcb:	48 89 7c 02 08       	mov    %rdi,0x8(%rdx,%rax,1)
    1dd0:	e8 3f fe ff ff       	callq  1c14 <explode_bomb>

0000000000001dd5 <phase_defused>:
    1dd5:	48 83 ec 78          	sub    $0x78,%rsp
    1dd9:	64 48 8b 04 25 28 00 	mov    %fs:0x28,%rax
    1de0:	00 00 
    1de2:	48 89 44 24 68       	mov    %rax,0x68(%rsp)
    1de7:	31 c0                	xor    %eax,%eax
    1de9:	bf 01 00 00 00       	mov    $0x1,%edi
    1dee:	e8 fd fc ff ff       	callq  1af0 <send_msg>
    1df3:	83 3d b2 28 20 00 06 	cmpl   $0x6,0x2028b2(%rip)        # 2046ac <num_input_strings>
    1dfa:	74 19                	je     1e15 <phase_defused+0x40>
    1dfc:	48 8b 44 24 68       	mov    0x68(%rsp),%rax
    1e01:	64 48 33 04 25 28 00 	xor    %fs:0x28,%rax
    1e08:	00 00 
    1e0a:	0f 85 84 00 00 00    	jne    1e94 <phase_defused+0xbf>
    1e10:	48 83 c4 78          	add    $0x78,%rsp
    1e14:	c3                   	retq   
    1e15:	48 8d 4c 24 0c       	lea    0xc(%rsp),%rcx
    1e1a:	48 8d 54 24 08       	lea    0x8(%rsp),%rdx
    1e1f:	4c 8d 44 24 10       	lea    0x10(%rsp),%r8
    1e24:	48 8d 35 2c 11 00 00 	lea    0x112c(%rip),%rsi        # 2f57 <array.3415+0x2a7>
    1e2b:	48 8d 3d 7e 29 20 00 	lea    0x20297e(%rip),%rdi        # 2047b0 <input_strings+0xf0>
    1e32:	b8 00 00 00 00       	mov    $0x0,%eax
    1e37:	e8 e4 f2 ff ff       	callq  1120 <__isoc99_sscanf@plt>
    1e3c:	83 f8 03             	cmp    $0x3,%eax
    1e3f:	74 1a                	je     1e5b <phase_defused+0x86>
    1e41:	48 8d 3d d0 0f 00 00 	lea    0xfd0(%rip),%rdi        # 2e18 <array.3415+0x168>
    1e48:	e8 13 f2 ff ff       	callq  1060 <puts@plt>
    1e4d:	48 8d 3d f4 0f 00 00 	lea    0xff4(%rip),%rdi        # 2e48 <array.3415+0x198>
    1e54:	e8 07 f2 ff ff       	callq  1060 <puts@plt>
    1e59:	eb a1                	jmp    1dfc <phase_defused+0x27>
    1e5b:	48 8d 7c 24 10       	lea    0x10(%rsp),%rdi
    1e60:	48 8d 35 f9 10 00 00 	lea    0x10f9(%rip),%rsi        # 2f60 <array.3415+0x2b0>
    1e67:	e8 a4 fa ff ff       	callq  1910 <strings_not_equal>
    1e6c:	85 c0                	test   %eax,%eax
    1e6e:	75 d1                	jne    1e41 <phase_defused+0x6c>
    1e70:	48 8d 3d 41 0f 00 00 	lea    0xf41(%rip),%rdi        # 2db8 <array.3415+0x108>
    1e77:	e8 e4 f1 ff ff       	callq  1060 <puts@plt>
    1e7c:	48 8d 3d 5d 0f 00 00 	lea    0xf5d(%rip),%rdi        # 2de0 <array.3415+0x130>
    1e83:	e8 d8 f1 ff ff       	callq  1060 <puts@plt>
    1e88:	b8 00 00 00 00       	mov    $0x0,%eax
    1e8d:	e8 87 f9 ff ff       	callq  1819 <secret_phase>
    1e92:	eb ad                	jmp    1e41 <phase_defused+0x6c>
    1e94:	e8 e7 f1 ff ff       	callq  1080 <__stack_chk_fail@plt>

0000000000001e99 <sigalrm_handler>:
    1e99:	48 83 ec 08          	sub    $0x8,%rsp
    1e9d:	b9 00 00 00 00       	mov    $0x0,%ecx
    1ea2:	48 8d 15 37 12 00 00 	lea    0x1237(%rip),%rdx        # 30e0 <array.3415+0x430>
    1ea9:	be 01 00 00 00       	mov    $0x1,%esi
    1eae:	48 8b 3d eb 27 20 00 	mov    0x2027eb(%rip),%rdi        # 2046a0 <stderr@@GLIBC_2.2.5>
    1eb5:	b8 00 00 00 00       	mov    $0x0,%eax
    1eba:	e8 c1 f2 ff ff       	callq  1180 <__fprintf_chk@plt>
    1ebf:	bf 01 00 00 00       	mov    $0x1,%edi
    1ec4:	e8 97 f2 ff ff       	callq  1160 <exit@plt>

0000000000001ec9 <rio_readlineb>:
    1ec9:	41 56                	push   %r14
    1ecb:	41 55                	push   %r13
    1ecd:	41 54                	push   %r12
    1ecf:	55                   	push   %rbp
    1ed0:	53                   	push   %rbx
    1ed1:	48 89 fb             	mov    %rdi,%rbx
    1ed4:	49 89 f4             	mov    %rsi,%r12
    1ed7:	49 89 d6             	mov    %rdx,%r14
    1eda:	41 bd 01 00 00 00    	mov    $0x1,%r13d
    1ee0:	48 8d 6f 10          	lea    0x10(%rdi),%rbp
    1ee4:	48 83 fa 01          	cmp    $0x1,%rdx
    1ee8:	77 0c                	ja     1ef6 <rio_readlineb+0x2d>
    1eea:	eb 60                	jmp    1f4c <rio_readlineb+0x83>
    1eec:	e8 4f f1 ff ff       	callq  1040 <__errno_location@plt>
    1ef1:	83 38 04             	cmpl   $0x4,(%rax)
    1ef4:	75 67                	jne    1f5d <rio_readlineb+0x94>
    1ef6:	8b 43 04             	mov    0x4(%rbx),%eax
    1ef9:	85 c0                	test   %eax,%eax
    1efb:	7f 20                	jg     1f1d <rio_readlineb+0x54>
    1efd:	ba 00 20 00 00       	mov    $0x2000,%edx
    1f02:	48 89 ee             	mov    %rbp,%rsi
    1f05:	8b 3b                	mov    (%rbx),%edi
    1f07:	e8 a4 f1 ff ff       	callq  10b0 <read@plt>
    1f0c:	89 43 04             	mov    %eax,0x4(%rbx)
    1f0f:	85 c0                	test   %eax,%eax
    1f11:	78 d9                	js     1eec <rio_readlineb+0x23>
    1f13:	85 c0                	test   %eax,%eax
    1f15:	74 4f                	je     1f66 <rio_readlineb+0x9d>
    1f17:	48 89 6b 08          	mov    %rbp,0x8(%rbx)
    1f1b:	eb d9                	jmp    1ef6 <rio_readlineb+0x2d>
    1f1d:	48 8b 53 08          	mov    0x8(%rbx),%rdx
    1f21:	0f b6 0a             	movzbl (%rdx),%ecx
    1f24:	48 83 c2 01          	add    $0x1,%rdx
    1f28:	48 89 53 08          	mov    %rdx,0x8(%rbx)
    1f2c:	83 e8 01             	sub    $0x1,%eax
    1f2f:	89 43 04             	mov    %eax,0x4(%rbx)
    1f32:	49 83 c4 01          	add    $0x1,%r12
    1f36:	41 88 4c 24 ff       	mov    %cl,-0x1(%r12)
    1f3b:	80 f9 0a             	cmp    $0xa,%cl
    1f3e:	74 0c                	je     1f4c <rio_readlineb+0x83>
    1f40:	41 83 c5 01          	add    $0x1,%r13d
    1f44:	49 63 c5             	movslq %r13d,%rax
    1f47:	4c 39 f0             	cmp    %r14,%rax
    1f4a:	72 aa                	jb     1ef6 <rio_readlineb+0x2d>
    1f4c:	41 c6 04 24 00       	movb   $0x0,(%r12)
    1f51:	49 63 c5             	movslq %r13d,%rax
    1f54:	5b                   	pop    %rbx
    1f55:	5d                   	pop    %rbp
    1f56:	41 5c                	pop    %r12
    1f58:	41 5d                	pop    %r13
    1f5a:	41 5e                	pop    %r14
    1f5c:	c3                   	retq   
    1f5d:	48 c7 c0 ff ff ff ff 	mov    $0xffffffffffffffff,%rax
    1f64:	eb 05                	jmp    1f6b <rio_readlineb+0xa2>
    1f66:	b8 00 00 00 00       	mov    $0x0,%eax
    1f6b:	85 c0                	test   %eax,%eax
    1f6d:	75 0d                	jne    1f7c <rio_readlineb+0xb3>
    1f6f:	b8 00 00 00 00       	mov    $0x0,%eax
    1f74:	41 83 fd 01          	cmp    $0x1,%r13d
    1f78:	75 d2                	jne    1f4c <rio_readlineb+0x83>
    1f7a:	eb d8                	jmp    1f54 <rio_readlineb+0x8b>
    1f7c:	48 c7 c0 ff ff ff ff 	mov    $0xffffffffffffffff,%rax
    1f83:	eb cf                	jmp    1f54 <rio_readlineb+0x8b>

0000000000001f85 <submitr>:
    1f85:	41 57                	push   %r15
    1f87:	41 56                	push   %r14
    1f89:	41 55                	push   %r13
    1f8b:	41 54                	push   %r12
    1f8d:	55                   	push   %rbp
    1f8e:	53                   	push   %rbx
    1f8f:	48 81 ec 78 a0 00 00 	sub    $0xa078,%rsp
    1f96:	49 89 fd             	mov    %rdi,%r13
    1f99:	89 f5                	mov    %esi,%ebp
    1f9b:	48 89 54 24 08       	mov    %rdx,0x8(%rsp)
    1fa0:	48 89 4c 24 10       	mov    %rcx,0x10(%rsp)
    1fa5:	4c 89 44 24 20       	mov    %r8,0x20(%rsp)
    1faa:	4c 89 4c 24 18       	mov    %r9,0x18(%rsp)
    1faf:	48 8b 9c 24 b0 a0 00 	mov    0xa0b0(%rsp),%rbx
    1fb6:	00 
    1fb7:	4c 8b bc 24 b8 a0 00 	mov    0xa0b8(%rsp),%r15
    1fbe:	00 
    1fbf:	64 48 8b 04 25 28 00 	mov    %fs:0x28,%rax
    1fc6:	00 00 
    1fc8:	48 89 84 24 68 a0 00 	mov    %rax,0xa068(%rsp)
    1fcf:	00 
    1fd0:	31 c0                	xor    %eax,%eax
    1fd2:	c7 44 24 3c 00 00 00 	movl   $0x0,0x3c(%rsp)
    1fd9:	00 
    1fda:	ba 00 00 00 00       	mov    $0x0,%edx
    1fdf:	be 01 00 00 00       	mov    $0x1,%esi
    1fe4:	bf 02 00 00 00       	mov    $0x2,%edi
    1fe9:	e8 d2 f1 ff ff       	callq  11c0 <socket@plt>
    1fee:	85 c0                	test   %eax,%eax
    1ff0:	0f 88 35 01 00 00    	js     212b <submitr+0x1a6>
    1ff6:	41 89 c4             	mov    %eax,%r12d
    1ff9:	4c 89 ef             	mov    %r13,%rdi
    1ffc:	e8 df f0 ff ff       	callq  10e0 <gethostbyname@plt>
    2001:	48 85 c0             	test   %rax,%rax
    2004:	0f 84 71 01 00 00    	je     217b <submitr+0x1f6>
    200a:	4c 8d 6c 24 40       	lea    0x40(%rsp),%r13
    200f:	48 c7 44 24 42 00 00 	movq   $0x0,0x42(%rsp)
    2016:	00 00 
    2018:	c7 44 24 4a 00 00 00 	movl   $0x0,0x4a(%rsp)
    201f:	00 
    2020:	66 c7 44 24 4e 00 00 	movw   $0x0,0x4e(%rsp)
    2027:	66 c7 44 24 40 02 00 	movw   $0x2,0x40(%rsp)
    202e:	48 63 50 14          	movslq 0x14(%rax),%rdx
    2032:	48 8b 40 18          	mov    0x18(%rax),%rax
    2036:	48 8d 7c 24 44       	lea    0x44(%rsp),%rdi
    203b:	b9 0c 00 00 00       	mov    $0xc,%ecx
    2040:	48 8b 30             	mov    (%rax),%rsi
    2043:	e8 a8 f0 ff ff       	callq  10f0 <__memmove_chk@plt>
    2048:	66 c1 cd 08          	ror    $0x8,%bp
    204c:	66 89 6c 24 42       	mov    %bp,0x42(%rsp)
    2051:	ba 10 00 00 00       	mov    $0x10,%edx
    2056:	4c 89 ee             	mov    %r13,%rsi
    2059:	44 89 e7             	mov    %r12d,%edi
    205c:	e8 0f f1 ff ff       	callq  1170 <connect@plt>
    2061:	85 c0                	test   %eax,%eax
    2063:	0f 88 7d 01 00 00    	js     21e6 <submitr+0x261>
    2069:	49 c7 c1 ff ff ff ff 	mov    $0xffffffffffffffff,%r9
    2070:	b8 00 00 00 00       	mov    $0x0,%eax
    2075:	4c 89 c9             	mov    %r9,%rcx
    2078:	48 89 df             	mov    %rbx,%rdi
    207b:	f2 ae                	repnz scas %es:(%rdi),%al
    207d:	48 89 ce             	mov    %rcx,%rsi
    2080:	48 f7 d6             	not    %rsi
    2083:	4c 89 c9             	mov    %r9,%rcx
    2086:	48 8b 7c 24 08       	mov    0x8(%rsp),%rdi
    208b:	f2 ae                	repnz scas %es:(%rdi),%al
    208d:	49 89 c8             	mov    %rcx,%r8
    2090:	4c 89 c9             	mov    %r9,%rcx
    2093:	48 8b 7c 24 10       	mov    0x10(%rsp),%rdi
    2098:	f2 ae                	repnz scas %es:(%rdi),%al
    209a:	48 89 ca             	mov    %rcx,%rdx
    209d:	48 f7 d2             	not    %rdx
    20a0:	4c 89 c9             	mov    %r9,%rcx
    20a3:	48 8b 7c 24 18       	mov    0x18(%rsp),%rdi
    20a8:	f2 ae                	repnz scas %es:(%rdi),%al
    20aa:	4c 29 c2             	sub    %r8,%rdx
    20ad:	48 29 ca             	sub    %rcx,%rdx
    20b0:	48 8d 44 76 fd       	lea    -0x3(%rsi,%rsi,2),%rax
    20b5:	48 8d 44 02 7b       	lea    0x7b(%rdx,%rax,1),%rax
    20ba:	48 3d 00 20 00 00    	cmp    $0x2000,%rax
    20c0:	0f 87 7d 01 00 00    	ja     2243 <submitr+0x2be>
    20c6:	48 8d 94 24 60 40 00 	lea    0x4060(%rsp),%rdx
    20cd:	00 
    20ce:	b9 00 04 00 00       	mov    $0x400,%ecx
    20d3:	b8 00 00 00 00       	mov    $0x0,%eax
    20d8:	48 89 d7             	mov    %rdx,%rdi
    20db:	f3 48 ab             	rep stos %rax,%es:(%rdi)
    20de:	48 c7 c1 ff ff ff ff 	mov    $0xffffffffffffffff,%rcx
    20e5:	48 89 df             	mov    %rbx,%rdi
    20e8:	f2 ae                	repnz scas %es:(%rdi),%al
    20ea:	48 89 ca             	mov    %rcx,%rdx
    20ed:	48 f7 d2             	not    %rdx
    20f0:	48 89 d1             	mov    %rdx,%rcx
    20f3:	48 83 e9 01          	sub    $0x1,%rcx
    20f7:	85 c9                	test   %ecx,%ecx
    20f9:	0f 84 3f 06 00 00    	je     273e <submitr+0x7b9>
    20ff:	8d 41 ff             	lea    -0x1(%rcx),%eax
    2102:	4c 8d 74 03 01       	lea    0x1(%rbx,%rax,1),%r14
    2107:	48 8d ac 24 60 40 00 	lea    0x4060(%rsp),%rbp
    210e:	00 
    210f:	48 8d 84 24 60 80 00 	lea    0x8060(%rsp),%rax
    2116:	00 
    2117:	48 89 44 24 28       	mov    %rax,0x28(%rsp)
    211c:	49 bd d9 ff 00 00 00 	movabs $0x2000000000ffd9,%r13
    2123:	00 20 00 
    2126:	e9 a6 01 00 00       	jmpq   22d1 <submitr+0x34c>
    212b:	48 b8 45 72 72 6f 72 	movabs $0x43203a726f727245,%rax
    2132:	3a 20 43 
    2135:	48 ba 6c 69 65 6e 74 	movabs $0x6e7520746e65696c,%rdx
    213c:	20 75 6e 
    213f:	49 89 07             	mov    %rax,(%r15)
    2142:	49 89 57 08          	mov    %rdx,0x8(%r15)
    2146:	48 b8 61 62 6c 65 20 	movabs $0x206f7420656c6261,%rax
    214d:	74 6f 20 
    2150:	48 ba 63 72 65 61 74 	movabs $0x7320657461657263,%rdx
    2157:	65 20 73 
    215a:	49 89 47 10          	mov    %rax,0x10(%r15)
    215e:	49 89 57 18          	mov    %rdx,0x18(%r15)
    2162:	41 c7 47 20 6f 63 6b 	movl   $0x656b636f,0x20(%r15)
    2169:	65 
    216a:	66 41 c7 47 24 74 00 	movw   $0x74,0x24(%r15)
    2171:	b8 ff ff ff ff       	mov    $0xffffffff,%eax
    2176:	e9 9a 04 00 00       	jmpq   2615 <submitr+0x690>
    217b:	48 b8 45 72 72 6f 72 	movabs $0x44203a726f727245,%rax
    2182:	3a 20 44 
    2185:	48 ba 4e 53 20 69 73 	movabs $0x6e7520736920534e,%rdx
    218c:	20 75 6e 
    218f:	49 89 07             	mov    %rax,(%r15)
    2192:	49 89 57 08          	mov    %rdx,0x8(%r15)
    2196:	48 b8 61 62 6c 65 20 	movabs $0x206f7420656c6261,%rax
    219d:	74 6f 20 
    21a0:	48 ba 72 65 73 6f 6c 	movabs $0x2065766c6f736572,%rdx
    21a7:	76 65 20 
    21aa:	49 89 47 10          	mov    %rax,0x10(%r15)
    21ae:	49 89 57 18          	mov    %rdx,0x18(%r15)
    21b2:	48 b8 73 65 72 76 65 	movabs $0x6120726576726573,%rax
    21b9:	72 20 61 
    21bc:	49 89 47 20          	mov    %rax,0x20(%r15)
    21c0:	41 c7 47 28 64 64 72 	movl   $0x65726464,0x28(%r15)
    21c7:	65 
    21c8:	66 41 c7 47 2c 73 73 	movw   $0x7373,0x2c(%r15)
    21cf:	41 c6 47 2e 00       	movb   $0x0,0x2e(%r15)
    21d4:	44 89 e7             	mov    %r12d,%edi
    21d7:	e8 c4 ee ff ff       	callq  10a0 <close@plt>
    21dc:	b8 ff ff ff ff       	mov    $0xffffffff,%eax
    21e1:	e9 2f 04 00 00       	jmpq   2615 <submitr+0x690>
    21e6:	48 b8 45 72 72 6f 72 	movabs $0x55203a726f727245,%rax
    21ed:	3a 20 55 
    21f0:	48 ba 6e 61 62 6c 65 	movabs $0x6f7420656c62616e,%rdx
    21f7:	20 74 6f 
    21fa:	49 89 07             	mov    %rax,(%r15)
    21fd:	49 89 57 08          	mov    %rdx,0x8(%r15)
    2201:	48 b8 20 63 6f 6e 6e 	movabs $0x7463656e6e6f6320,%rax
    2208:	65 63 74 
    220b:	48 ba 20 74 6f 20 74 	movabs $0x20656874206f7420,%rdx
    2212:	68 65 20 
    2215:	49 89 47 10          	mov    %rax,0x10(%r15)
    2219:	49 89 57 18          	mov    %rdx,0x18(%r15)
    221d:	41 c7 47 20 73 65 72 	movl   $0x76726573,0x20(%r15)
    2224:	76 
    2225:	66 41 c7 47 24 65 72 	movw   $0x7265,0x24(%r15)
    222c:	41 c6 47 26 00       	movb   $0x0,0x26(%r15)
    2231:	44 89 e7             	mov    %r12d,%edi
    2234:	e8 67 ee ff ff       	callq  10a0 <close@plt>
    2239:	b8 ff ff ff ff       	mov    $0xffffffff,%eax
    223e:	e9 d2 03 00 00       	jmpq   2615 <submitr+0x690>
    2243:	48 b8 45 72 72 6f 72 	movabs $0x52203a726f727245,%rax
    224a:	3a 20 52 
    224d:	48 ba 65 73 75 6c 74 	movabs $0x747320746c757365,%rdx
    2254:	20 73 74 
    2257:	49 89 07             	mov    %rax,(%r15)
    225a:	49 89 57 08          	mov    %rdx,0x8(%r15)
    225e:	48 b8 72 69 6e 67 20 	movabs $0x6f6f7420676e6972,%rax
    2265:	74 6f 6f 
    2268:	48 ba 20 6c 61 72 67 	movabs $0x202e656772616c20,%rdx
    226f:	65 2e 20 
    2272:	49 89 47 10          	mov    %rax,0x10(%r15)
    2276:	49 89 57 18          	mov    %rdx,0x18(%r15)
    227a:	48 b8 49 6e 63 72 65 	movabs $0x6573616572636e49,%rax
    2281:	61 73 65 
    2284:	48 ba 20 53 55 42 4d 	movabs $0x5254494d42555320,%rdx
    228b:	49 54 52 
    228e:	49 89 47 20          	mov    %rax,0x20(%r15)
    2292:	49 89 57 28          	mov    %rdx,0x28(%r15)
    2296:	48 b8 5f 4d 41 58 42 	movabs $0x46554258414d5f,%rax
    229d:	55 46 00 
    22a0:	49 89 47 30          	mov    %rax,0x30(%r15)
    22a4:	44 89 e7             	mov    %r12d,%edi
    22a7:	e8 f4 ed ff ff       	callq  10a0 <close@plt>
    22ac:	b8 ff ff ff ff       	mov    $0xffffffff,%eax
    22b1:	e9 5f 03 00 00       	jmpq   2615 <submitr+0x690>
    22b6:	49 0f a3 c5          	bt     %rax,%r13
    22ba:	73 21                	jae    22dd <submitr+0x358>
    22bc:	44 88 45 00          	mov    %r8b,0x0(%rbp)
    22c0:	48 8d 6d 01          	lea    0x1(%rbp),%rbp
    22c4:	48 83 c3 01          	add    $0x1,%rbx
    22c8:	4c 39 f3             	cmp    %r14,%rbx
    22cb:	0f 84 6d 04 00 00    	je     273e <submitr+0x7b9>
    22d1:	44 0f b6 03          	movzbl (%rbx),%r8d
    22d5:	41 8d 40 d6          	lea    -0x2a(%r8),%eax
    22d9:	3c 35                	cmp    $0x35,%al
    22db:	76 d9                	jbe    22b6 <submitr+0x331>
    22dd:	44 89 c0             	mov    %r8d,%eax
    22e0:	83 e0 df             	and    $0xffffffdf,%eax
    22e3:	83 e8 41             	sub    $0x41,%eax
    22e6:	3c 19                	cmp    $0x19,%al
    22e8:	76 d2                	jbe    22bc <submitr+0x337>
    22ea:	41 80 f8 20          	cmp    $0x20,%r8b
    22ee:	74 60                	je     2350 <submitr+0x3cb>
    22f0:	41 8d 40 e0          	lea    -0x20(%r8),%eax
    22f4:	3c 5f                	cmp    $0x5f,%al
    22f6:	76 0a                	jbe    2302 <submitr+0x37d>
    22f8:	41 80 f8 09          	cmp    $0x9,%r8b
    22fc:	0f 85 af 03 00 00    	jne    26b1 <submitr+0x72c>
    2302:	45 0f b6 c0          	movzbl %r8b,%r8d
    2306:	48 8d 0d ab 0e 00 00 	lea    0xeab(%rip),%rcx        # 31b8 <array.3415+0x508>
    230d:	ba 08 00 00 00       	mov    $0x8,%edx
    2312:	be 01 00 00 00       	mov    $0x1,%esi
    2317:	48 8b 7c 24 28       	mov    0x28(%rsp),%rdi
    231c:	b8 00 00 00 00       	mov    $0x0,%eax
    2321:	e8 8a ee ff ff       	callq  11b0 <__sprintf_chk@plt>
    2326:	0f b6 84 24 60 80 00 	movzbl 0x8060(%rsp),%eax
    232d:	00 
    232e:	88 45 00             	mov    %al,0x0(%rbp)
    2331:	0f b6 84 24 61 80 00 	movzbl 0x8061(%rsp),%eax
    2338:	00 
    2339:	88 45 01             	mov    %al,0x1(%rbp)
    233c:	0f b6 84 24 62 80 00 	movzbl 0x8062(%rsp),%eax
    2343:	00 
    2344:	88 45 02             	mov    %al,0x2(%rbp)
    2347:	48 8d 6d 03          	lea    0x3(%rbp),%rbp
    234b:	e9 74 ff ff ff       	jmpq   22c4 <submitr+0x33f>
    2350:	c6 45 00 2b          	movb   $0x2b,0x0(%rbp)
    2354:	48 8d 6d 01          	lea    0x1(%rbp),%rbp
    2358:	e9 67 ff ff ff       	jmpq   22c4 <submitr+0x33f>
    235d:	49 01 c5             	add    %rax,%r13
    2360:	48 29 c5             	sub    %rax,%rbp
    2363:	74 26                	je     238b <submitr+0x406>
    2365:	48 89 ea             	mov    %rbp,%rdx
    2368:	4c 89 ee             	mov    %r13,%rsi
    236b:	44 89 e7             	mov    %r12d,%edi
    236e:	e8 fd ec ff ff       	callq  1070 <write@plt>
    2373:	48 85 c0             	test   %rax,%rax
    2376:	7f e5                	jg     235d <submitr+0x3d8>
    2378:	e8 c3 ec ff ff       	callq  1040 <__errno_location@plt>
    237d:	83 38 04             	cmpl   $0x4,(%rax)
    2380:	0f 85 31 01 00 00    	jne    24b7 <submitr+0x532>
    2386:	4c 89 f0             	mov    %r14,%rax
    2389:	eb d2                	jmp    235d <submitr+0x3d8>
    238b:	48 85 db             	test   %rbx,%rbx
    238e:	0f 88 23 01 00 00    	js     24b7 <submitr+0x532>
    2394:	44 89 64 24 50       	mov    %r12d,0x50(%rsp)
    2399:	c7 44 24 54 00 00 00 	movl   $0x0,0x54(%rsp)
    23a0:	00 
    23a1:	48 8d 7c 24 50       	lea    0x50(%rsp),%rdi
    23a6:	48 8d 47 10          	lea    0x10(%rdi),%rax
    23aa:	48 89 44 24 58       	mov    %rax,0x58(%rsp)
    23af:	48 8d b4 24 60 20 00 	lea    0x2060(%rsp),%rsi
    23b6:	00 
    23b7:	ba 00 20 00 00       	mov    $0x2000,%edx
    23bc:	e8 08 fb ff ff       	callq  1ec9 <rio_readlineb>
    23c1:	48 85 c0             	test   %rax,%rax
    23c4:	0f 8e 4c 01 00 00    	jle    2516 <submitr+0x591>
    23ca:	48 8d 4c 24 3c       	lea    0x3c(%rsp),%rcx
    23cf:	48 8d 94 24 60 60 00 	lea    0x6060(%rsp),%rdx
    23d6:	00 
    23d7:	48 8d bc 24 60 20 00 	lea    0x2060(%rsp),%rdi
    23de:	00 
    23df:	4c 8d 84 24 60 80 00 	lea    0x8060(%rsp),%r8
    23e6:	00 
    23e7:	48 8d 35 d1 0d 00 00 	lea    0xdd1(%rip),%rsi        # 31bf <array.3415+0x50f>
    23ee:	b8 00 00 00 00       	mov    $0x0,%eax
    23f3:	e8 28 ed ff ff       	callq  1120 <__isoc99_sscanf@plt>
    23f8:	44 8b 44 24 3c       	mov    0x3c(%rsp),%r8d
    23fd:	41 81 f8 c8 00 00 00 	cmp    $0xc8,%r8d
    2404:	0f 85 80 01 00 00    	jne    258a <submitr+0x605>
    240a:	48 8d 9c 24 60 20 00 	lea    0x2060(%rsp),%rbx
    2411:	00 
    2412:	48 8d 2d b7 0d 00 00 	lea    0xdb7(%rip),%rbp        # 31d0 <array.3415+0x520>
    2419:	4c 8d 6c 24 50       	lea    0x50(%rsp),%r13
    241e:	b9 03 00 00 00       	mov    $0x3,%ecx
    2423:	48 89 de             	mov    %rbx,%rsi
    2426:	48 89 ef             	mov    %rbp,%rdi
    2429:	f3 a6                	repz cmpsb %es:(%rdi),%ds:(%rsi)
    242b:	0f 97 c0             	seta   %al
    242e:	1c 00                	sbb    $0x0,%al
    2430:	84 c0                	test   %al,%al
    2432:	0f 84 89 01 00 00    	je     25c1 <submitr+0x63c>
    2438:	ba 00 20 00 00       	mov    $0x2000,%edx
    243d:	48 89 de             	mov    %rbx,%rsi
    2440:	4c 89 ef             	mov    %r13,%rdi
    2443:	e8 81 fa ff ff       	callq  1ec9 <rio_readlineb>
    2448:	48 85 c0             	test   %rax,%rax
    244b:	7f d1                	jg     241e <submitr+0x499>
    244d:	48 b8 45 72 72 6f 72 	movabs $0x43203a726f727245,%rax
    2454:	3a 20 43 
    2457:	48 ba 6c 69 65 6e 74 	movabs $0x6e7520746e65696c,%rdx
    245e:	20 75 6e 
    2461:	49 89 07             	mov    %rax,(%r15)
    2464:	49 89 57 08          	mov    %rdx,0x8(%r15)
    2468:	48 b8 61 62 6c 65 20 	movabs $0x206f7420656c6261,%rax
    246f:	74 6f 20 
    2472:	48 ba 72 65 61 64 20 	movabs $0x6165682064616572,%rdx
    2479:	68 65 61 
    247c:	49 89 47 10          	mov    %rax,0x10(%r15)
    2480:	49 89 57 18          	mov    %rdx,0x18(%r15)
    2484:	48 b8 64 65 72 73 20 	movabs $0x6f72662073726564,%rax
    248b:	66 72 6f 
    248e:	48 ba 6d 20 73 65 72 	movabs $0x726576726573206d,%rdx
    2495:	76 65 72 
    2498:	49 89 47 20          	mov    %rax,0x20(%r15)
    249c:	49 89 57 28          	mov    %rdx,0x28(%r15)
    24a0:	41 c6 47 30 00       	movb   $0x0,0x30(%r15)
    24a5:	44 89 e7             	mov    %r12d,%edi
    24a8:	e8 f3 eb ff ff       	callq  10a0 <close@plt>
    24ad:	b8 ff ff ff ff       	mov    $0xffffffff,%eax
    24b2:	e9 5e 01 00 00       	jmpq   2615 <submitr+0x690>
    24b7:	48 b8 45 72 72 6f 72 	movabs $0x43203a726f727245,%rax
    24be:	3a 20 43 
    24c1:	48 ba 6c 69 65 6e 74 	movabs $0x6e7520746e65696c,%rdx
    24c8:	20 75 6e 
    24cb:	49 89 07             	mov    %rax,(%r15)
    24ce:	49 89 57 08          	mov    %rdx,0x8(%r15)
    24d2:	48 b8 61 62 6c 65 20 	movabs $0x206f7420656c6261,%rax
    24d9:	74 6f 20 
    24dc:	48 ba 77 72 69 74 65 	movabs $0x6f74206574697277,%rdx
    24e3:	20 74 6f 
    24e6:	49 89 47 10          	mov    %rax,0x10(%r15)
    24ea:	49 89 57 18          	mov    %rdx,0x18(%r15)
    24ee:	48 b8 20 74 68 65 20 	movabs $0x7265732065687420,%rax
    24f5:	73 65 72 
    24f8:	49 89 47 20          	mov    %rax,0x20(%r15)
    24fc:	41 c7 47 28 76 65 72 	movl   $0x726576,0x28(%r15)
    2503:	00 
    2504:	44 89 e7             	mov    %r12d,%edi
    2507:	e8 94 eb ff ff       	callq  10a0 <close@plt>
    250c:	b8 ff ff ff ff       	mov    $0xffffffff,%eax
    2511:	e9 ff 00 00 00       	jmpq   2615 <submitr+0x690>
    2516:	48 b8 45 72 72 6f 72 	movabs $0x43203a726f727245,%rax
    251d:	3a 20 43 
    2520:	48 ba 6c 69 65 6e 74 	movabs $0x6e7520746e65696c,%rdx
    2527:	20 75 6e 
    252a:	49 89 07             	mov    %rax,(%r15)
    252d:	49 89 57 08          	mov    %rdx,0x8(%r15)
    2531:	48 b8 61 62 6c 65 20 	movabs $0x206f7420656c6261,%rax
    2538:	74 6f 20 
    253b:	48 ba 72 65 61 64 20 	movabs $0x7269662064616572,%rdx
    2542:	66 69 72 
    2545:	49 89 47 10          	mov    %rax,0x10(%r15)
    2549:	49 89 57 18          	mov    %rdx,0x18(%r15)
    254d:	48 b8 73 74 20 68 65 	movabs $0x6564616568207473,%rax
    2554:	61 64 65 
    2557:	48 ba 72 20 66 72 6f 	movabs $0x73206d6f72662072,%rdx
    255e:	6d 20 73 
    2561:	49 89 47 20          	mov    %rax,0x20(%r15)
    2565:	49 89 57 28          	mov    %rdx,0x28(%r15)
    2569:	41 c7 47 30 65 72 76 	movl   $0x65767265,0x30(%r15)
    2570:	65 
    2571:	66 41 c7 47 34 72 00 	movw   $0x72,0x34(%r15)
    2578:	44 89 e7             	mov    %r12d,%edi
    257b:	e8 20 eb ff ff       	callq  10a0 <close@plt>
    2580:	b8 ff ff ff ff       	mov    $0xffffffff,%eax
    2585:	e9 8b 00 00 00       	jmpq   2615 <submitr+0x690>
    258a:	4c 8d 8c 24 60 80 00 	lea    0x8060(%rsp),%r9
    2591:	00 
    2592:	48 8d 0d 6f 0b 00 00 	lea    0xb6f(%rip),%rcx        # 3108 <array.3415+0x458>
    2599:	48 c7 c2 ff ff ff ff 	mov    $0xffffffffffffffff,%rdx
    25a0:	be 01 00 00 00       	mov    $0x1,%esi
    25a5:	4c 89 ff             	mov    %r15,%rdi
    25a8:	b8 00 00 00 00       	mov    $0x0,%eax
    25ad:	e8 fe eb ff ff       	callq  11b0 <__sprintf_chk@plt>
    25b2:	44 89 e7             	mov    %r12d,%edi
    25b5:	e8 e6 ea ff ff       	callq  10a0 <close@plt>
    25ba:	b8 ff ff ff ff       	mov    $0xffffffff,%eax
    25bf:	eb 54                	jmp    2615 <submitr+0x690>
    25c1:	48 8d b4 24 60 20 00 	lea    0x2060(%rsp),%rsi
    25c8:	00 
    25c9:	48 8d 7c 24 50       	lea    0x50(%rsp),%rdi
    25ce:	ba 00 20 00 00       	mov    $0x2000,%edx
    25d3:	e8 f1 f8 ff ff       	callq  1ec9 <rio_readlineb>
    25d8:	48 85 c0             	test   %rax,%rax
    25db:	7e 61                	jle    263e <submitr+0x6b9>
    25dd:	48 8d b4 24 60 20 00 	lea    0x2060(%rsp),%rsi
    25e4:	00 
    25e5:	4c 89 ff             	mov    %r15,%rdi
    25e8:	e8 63 ea ff ff       	callq  1050 <strcpy@plt>
    25ed:	44 89 e7             	mov    %r12d,%edi
    25f0:	e8 ab ea ff ff       	callq  10a0 <close@plt>
    25f5:	b9 03 00 00 00       	mov    $0x3,%ecx
    25fa:	48 8d 3d d2 0b 00 00 	lea    0xbd2(%rip),%rdi        # 31d3 <array.3415+0x523>
    2601:	4c 89 fe             	mov    %r15,%rsi
    2604:	f3 a6                	repz cmpsb %es:(%rdi),%ds:(%rsi)
    2606:	0f 97 c0             	seta   %al
    2609:	1c 00                	sbb    $0x0,%al
    260b:	84 c0                	test   %al,%al
    260d:	0f 95 c0             	setne  %al
    2610:	0f b6 c0             	movzbl %al,%eax
    2613:	f7 d8                	neg    %eax
    2615:	48 8b 94 24 68 a0 00 	mov    0xa068(%rsp),%rdx
    261c:	00 
    261d:	64 48 33 14 25 28 00 	xor    %fs:0x28,%rdx
    2624:	00 00 
    2626:	0f 85 95 01 00 00    	jne    27c1 <submitr+0x83c>
    262c:	48 81 c4 78 a0 00 00 	add    $0xa078,%rsp
    2633:	5b                   	pop    %rbx
    2634:	5d                   	pop    %rbp
    2635:	41 5c                	pop    %r12
    2637:	41 5d                	pop    %r13
    2639:	41 5e                	pop    %r14
    263b:	41 5f                	pop    %r15
    263d:	c3                   	retq   
    263e:	48 b8 45 72 72 6f 72 	movabs $0x43203a726f727245,%rax
    2645:	3a 20 43 
    2648:	48 ba 6c 69 65 6e 74 	movabs $0x6e7520746e65696c,%rdx
    264f:	20 75 6e 
    2652:	49 89 07             	mov    %rax,(%r15)
    2655:	49 89 57 08          	mov    %rdx,0x8(%r15)
    2659:	48 b8 61 62 6c 65 20 	movabs $0x206f7420656c6261,%rax
    2660:	74 6f 20 
    2663:	48 ba 72 65 61 64 20 	movabs $0x6174732064616572,%rdx
    266a:	73 74 61 
    266d:	49 89 47 10          	mov    %rax,0x10(%r15)
    2671:	49 89 57 18          	mov    %rdx,0x18(%r15)
    2675:	48 b8 74 75 73 20 6d 	movabs $0x7373656d20737574,%rax
    267c:	65 73 73 
    267f:	48 ba 61 67 65 20 66 	movabs $0x6d6f726620656761,%rdx
    2686:	72 6f 6d 
    2689:	49 89 47 20          	mov    %rax,0x20(%r15)
    268d:	49 89 57 28          	mov    %rdx,0x28(%r15)
    2691:	48 b8 20 73 65 72 76 	movabs $0x72657672657320,%rax
    2698:	65 72 00 
    269b:	49 89 47 30          	mov    %rax,0x30(%r15)
    269f:	44 89 e7             	mov    %r12d,%edi
    26a2:	e8 f9 e9 ff ff       	callq  10a0 <close@plt>
    26a7:	b8 ff ff ff ff       	mov    $0xffffffff,%eax
    26ac:	e9 64 ff ff ff       	jmpq   2615 <submitr+0x690>
    26b1:	48 b8 45 72 72 6f 72 	movabs $0x52203a726f727245,%rax
    26b8:	3a 20 52 
    26bb:	48 ba 65 73 75 6c 74 	movabs $0x747320746c757365,%rdx
    26c2:	20 73 74 
    26c5:	49 89 07             	mov    %rax,(%r15)
    26c8:	49 89 57 08          	mov    %rdx,0x8(%r15)
    26cc:	48 b8 72 69 6e 67 20 	movabs $0x6e6f6320676e6972,%rax
    26d3:	63 6f 6e 
    26d6:	48 ba 74 61 69 6e 73 	movabs $0x6e6120736e696174,%rdx
    26dd:	20 61 6e 
    26e0:	49 89 47 10          	mov    %rax,0x10(%r15)
    26e4:	49 89 57 18          	mov    %rdx,0x18(%r15)
    26e8:	48 b8 20 69 6c 6c 65 	movabs $0x6c6167656c6c6920,%rax
    26ef:	67 61 6c 
    26f2:	48 ba 20 6f 72 20 75 	movabs $0x72706e7520726f20,%rdx
    26f9:	6e 70 72 
    26fc:	49 89 47 20          	mov    %rax,0x20(%r15)
    2700:	49 89 57 28          	mov    %rdx,0x28(%r15)
    2704:	48 b8 69 6e 74 61 62 	movabs $0x20656c6261746e69,%rax
    270b:	6c 65 20 
    270e:	48 ba 63 68 61 72 61 	movabs $0x6574636172616863,%rdx
    2715:	63 74 65 
    2718:	49 89 47 30          	mov    %rax,0x30(%r15)
    271c:	49 89 57 38          	mov    %rdx,0x38(%r15)
    2720:	66 41 c7 47 40 72 2e 	movw   $0x2e72,0x40(%r15)
    2727:	41 c6 47 42 00       	movb   $0x0,0x42(%r15)
    272c:	44 89 e7             	mov    %r12d,%edi
    272f:	e8 6c e9 ff ff       	callq  10a0 <close@plt>
    2734:	b8 ff ff ff ff       	mov    $0xffffffff,%eax
    2739:	e9 d7 fe ff ff       	jmpq   2615 <submitr+0x690>
    273e:	48 8d 9c 24 60 20 00 	lea    0x2060(%rsp),%rbx
    2745:	00 
    2746:	48 83 ec 08          	sub    $0x8,%rsp
    274a:	48 8d 84 24 68 40 00 	lea    0x4068(%rsp),%rax
    2751:	00 
    2752:	50                   	push   %rax
    2753:	ff 74 24 28          	pushq  0x28(%rsp)
    2757:	ff 74 24 38          	pushq  0x38(%rsp)
    275b:	4c 8b 4c 24 30       	mov    0x30(%rsp),%r9
    2760:	4c 8b 44 24 28       	mov    0x28(%rsp),%r8
    2765:	48 8d 0d cc 09 00 00 	lea    0x9cc(%rip),%rcx        # 3138 <array.3415+0x488>
    276c:	ba 00 20 00 00       	mov    $0x2000,%edx
    2771:	be 01 00 00 00       	mov    $0x1,%esi
    2776:	48 89 df             	mov    %rbx,%rdi
    2779:	b8 00 00 00 00       	mov    $0x0,%eax
    277e:	e8 2d ea ff ff       	callq  11b0 <__sprintf_chk@plt>
    2783:	48 c7 c1 ff ff ff ff 	mov    $0xffffffffffffffff,%rcx
    278a:	b8 00 00 00 00       	mov    $0x0,%eax
    278f:	48 89 df             	mov    %rbx,%rdi
    2792:	f2 ae                	repnz scas %es:(%rdi),%al
    2794:	48 f7 d1             	not    %rcx
    2797:	48 89 cb             	mov    %rcx,%rbx
    279a:	48 83 eb 01          	sub    $0x1,%rbx
    279e:	48 83 c4 20          	add    $0x20,%rsp
    27a2:	48 89 dd             	mov    %rbx,%rbp
    27a5:	4c 8d ac 24 60 20 00 	lea    0x2060(%rsp),%r13
    27ac:	00 
    27ad:	41 be 00 00 00 00    	mov    $0x0,%r14d
    27b3:	48 85 db             	test   %rbx,%rbx
    27b6:	0f 85 a9 fb ff ff    	jne    2365 <submitr+0x3e0>
    27bc:	e9 d3 fb ff ff       	jmpq   2394 <submitr+0x40f>
    27c1:	e8 ba e8 ff ff       	callq  1080 <__stack_chk_fail@plt>

00000000000027c6 <init_timeout>:
    27c6:	85 ff                	test   %edi,%edi
    27c8:	74 25                	je     27ef <init_timeout+0x29>
    27ca:	53                   	push   %rbx
    27cb:	89 fb                	mov    %edi,%ebx
    27cd:	48 8d 35 c5 f6 ff ff 	lea    -0x93b(%rip),%rsi        # 1e99 <sigalrm_handler>
    27d4:	bf 0e 00 00 00       	mov    $0xe,%edi
    27d9:	e8 f2 e8 ff ff       	callq  10d0 <signal@plt>
    27de:	85 db                	test   %ebx,%ebx
    27e0:	bf 00 00 00 00       	mov    $0x0,%edi
    27e5:	0f 49 fb             	cmovns %ebx,%edi
    27e8:	e8 a3 e8 ff ff       	callq  1090 <alarm@plt>
    27ed:	5b                   	pop    %rbx
    27ee:	c3                   	retq   
    27ef:	f3 c3                	repz retq 

00000000000027f1 <init_driver>:
    27f1:	41 54                	push   %r12
    27f3:	55                   	push   %rbp
    27f4:	53                   	push   %rbx
    27f5:	48 83 ec 20          	sub    $0x20,%rsp
    27f9:	49 89 fc             	mov    %rdi,%r12
    27fc:	64 48 8b 04 25 28 00 	mov    %fs:0x28,%rax
    2803:	00 00 
    2805:	48 89 44 24 18       	mov    %rax,0x18(%rsp)
    280a:	31 c0                	xor    %eax,%eax
    280c:	be 01 00 00 00       	mov    $0x1,%esi
    2811:	bf 0d 00 00 00       	mov    $0xd,%edi
    2816:	e8 b5 e8 ff ff       	callq  10d0 <signal@plt>
    281b:	be 01 00 00 00       	mov    $0x1,%esi
    2820:	bf 1d 00 00 00       	mov    $0x1d,%edi
    2825:	e8 a6 e8 ff ff       	callq  10d0 <signal@plt>
    282a:	be 01 00 00 00       	mov    $0x1,%esi
    282f:	bf 1d 00 00 00       	mov    $0x1d,%edi
    2834:	e8 97 e8 ff ff       	callq  10d0 <signal@plt>
    2839:	ba 00 00 00 00       	mov    $0x0,%edx
    283e:	be 01 00 00 00       	mov    $0x1,%esi
    2843:	bf 02 00 00 00       	mov    $0x2,%edi
    2848:	e8 73 e9 ff ff       	callq  11c0 <socket@plt>
    284d:	85 c0                	test   %eax,%eax
    284f:	0f 88 a3 00 00 00    	js     28f8 <init_driver+0x107>
    2855:	89 c3                	mov    %eax,%ebx
    2857:	48 8d 3d 0d 07 00 00 	lea    0x70d(%rip),%rdi        # 2f6b <array.3415+0x2bb>
    285e:	e8 7d e8 ff ff       	callq  10e0 <gethostbyname@plt>
    2863:	48 85 c0             	test   %rax,%rax
    2866:	0f 84 df 00 00 00    	je     294b <init_driver+0x15a>
    286c:	48 89 e5             	mov    %rsp,%rbp
    286f:	48 c7 44 24 02 00 00 	movq   $0x0,0x2(%rsp)
    2876:	00 00 
    2878:	c7 45 0a 00 00 00 00 	movl   $0x0,0xa(%rbp)
    287f:	66 c7 45 0e 00 00    	movw   $0x0,0xe(%rbp)
    2885:	66 c7 04 24 02 00    	movw   $0x2,(%rsp)
    288b:	48 63 50 14          	movslq 0x14(%rax),%rdx
    288f:	48 8b 40 18          	mov    0x18(%rax),%rax
    2893:	48 8d 7d 04          	lea    0x4(%rbp),%rdi
    2897:	b9 0c 00 00 00       	mov    $0xc,%ecx
    289c:	48 8b 30             	mov    (%rax),%rsi
    289f:	e8 4c e8 ff ff       	callq  10f0 <__memmove_chk@plt>
    28a4:	66 c7 44 24 02 3b 6e 	movw   $0x6e3b,0x2(%rsp)
    28ab:	ba 10 00 00 00       	mov    $0x10,%edx
    28b0:	48 89 ee             	mov    %rbp,%rsi
    28b3:	89 df                	mov    %ebx,%edi
    28b5:	e8 b6 e8 ff ff       	callq  1170 <connect@plt>
    28ba:	85 c0                	test   %eax,%eax
    28bc:	0f 88 fb 00 00 00    	js     29bd <init_driver+0x1cc>
    28c2:	89 df                	mov    %ebx,%edi
    28c4:	e8 d7 e7 ff ff       	callq  10a0 <close@plt>
    28c9:	66 41 c7 04 24 4f 4b 	movw   $0x4b4f,(%r12)
    28d0:	41 c6 44 24 02 00    	movb   $0x0,0x2(%r12)
    28d6:	b8 00 00 00 00       	mov    $0x0,%eax
    28db:	48 8b 4c 24 18       	mov    0x18(%rsp),%rcx
    28e0:	64 48 33 0c 25 28 00 	xor    %fs:0x28,%rcx
    28e7:	00 00 
    28e9:	0f 85 06 01 00 00    	jne    29f5 <init_driver+0x204>
    28ef:	48 83 c4 20          	add    $0x20,%rsp
    28f3:	5b                   	pop    %rbx
    28f4:	5d                   	pop    %rbp
    28f5:	41 5c                	pop    %r12
    28f7:	c3                   	retq   
    28f8:	48 b8 45 72 72 6f 72 	movabs $0x43203a726f727245,%rax
    28ff:	3a 20 43 
    2902:	48 ba 6c 69 65 6e 74 	movabs $0x6e7520746e65696c,%rdx
    2909:	20 75 6e 
    290c:	49 89 04 24          	mov    %rax,(%r12)
    2910:	49 89 54 24 08       	mov    %rdx,0x8(%r12)
    2915:	48 b8 61 62 6c 65 20 	movabs $0x206f7420656c6261,%rax
    291c:	74 6f 20 
    291f:	48 ba 63 72 65 61 74 	movabs $0x7320657461657263,%rdx
    2926:	65 20 73 
    2929:	49 89 44 24 10       	mov    %rax,0x10(%r12)
    292e:	49 89 54 24 18       	mov    %rdx,0x18(%r12)
    2933:	41 c7 44 24 20 6f 63 	movl   $0x656b636f,0x20(%r12)
    293a:	6b 65 
    293c:	66 41 c7 44 24 24 74 	movw   $0x74,0x24(%r12)
    2943:	00 
    2944:	b8 ff ff ff ff       	mov    $0xffffffff,%eax
    2949:	eb 90                	jmp    28db <init_driver+0xea>
    294b:	48 b8 45 72 72 6f 72 	movabs $0x44203a726f727245,%rax
    2952:	3a 20 44 
    2955:	48 ba 4e 53 20 69 73 	movabs $0x6e7520736920534e,%rdx
    295c:	20 75 6e 
    295f:	49 89 04 24          	mov    %rax,(%r12)
    2963:	49 89 54 24 08       	mov    %rdx,0x8(%r12)
    2968:	48 b8 61 62 6c 65 20 	movabs $0x206f7420656c6261,%rax
    296f:	74 6f 20 
    2972:	48 ba 72 65 73 6f 6c 	movabs $0x2065766c6f736572,%rdx
    2979:	76 65 20 
    297c:	49 89 44 24 10       	mov    %rax,0x10(%r12)
    2981:	49 89 54 24 18       	mov    %rdx,0x18(%r12)
    2986:	48 b8 73 65 72 76 65 	movabs $0x6120726576726573,%rax
    298d:	72 20 61 
    2990:	49 89 44 24 20       	mov    %rax,0x20(%r12)
    2995:	41 c7 44 24 28 64 64 	movl   $0x65726464,0x28(%r12)
    299c:	72 65 
    299e:	66 41 c7 44 24 2c 73 	movw   $0x7373,0x2c(%r12)
    29a5:	73 
    29a6:	41 c6 44 24 2e 00    	movb   $0x0,0x2e(%r12)
    29ac:	89 df                	mov    %ebx,%edi
    29ae:	e8 ed e6 ff ff       	callq  10a0 <close@plt>
    29b3:	b8 ff ff ff ff       	mov    $0xffffffff,%eax
    29b8:	e9 1e ff ff ff       	jmpq   28db <init_driver+0xea>
    29bd:	4c 8d 05 a7 05 00 00 	lea    0x5a7(%rip),%r8        # 2f6b <array.3415+0x2bb>
    29c4:	48 8d 0d c5 07 00 00 	lea    0x7c5(%rip),%rcx        # 3190 <array.3415+0x4e0>
    29cb:	48 c7 c2 ff ff ff ff 	mov    $0xffffffffffffffff,%rdx
    29d2:	be 01 00 00 00       	mov    $0x1,%esi
    29d7:	4c 89 e7             	mov    %r12,%rdi
    29da:	b8 00 00 00 00       	mov    $0x0,%eax
    29df:	e8 cc e7 ff ff       	callq  11b0 <__sprintf_chk@plt>
    29e4:	89 df                	mov    %ebx,%edi
    29e6:	e8 b5 e6 ff ff       	callq  10a0 <close@plt>
    29eb:	b8 ff ff ff ff       	mov    $0xffffffff,%eax
    29f0:	e9 e6 fe ff ff       	jmpq   28db <init_driver+0xea>
    29f5:	e8 86 e6 ff ff       	callq  1080 <__stack_chk_fail@plt>

00000000000029fa <driver_post>:
    29fa:	53                   	push   %rbx
    29fb:	4c 89 c3             	mov    %r8,%rbx
    29fe:	85 c9                	test   %ecx,%ecx
    2a00:	75 17                	jne    2a19 <driver_post+0x1f>
    2a02:	48 85 ff             	test   %rdi,%rdi
    2a05:	74 05                	je     2a0c <driver_post+0x12>
    2a07:	80 3f 00             	cmpb   $0x0,(%rdi)
    2a0a:	75 33                	jne    2a3f <driver_post+0x45>
    2a0c:	66 c7 03 4f 4b       	movw   $0x4b4f,(%rbx)
    2a11:	c6 43 02 00          	movb   $0x0,0x2(%rbx)
    2a15:	89 c8                	mov    %ecx,%eax
    2a17:	5b                   	pop    %rbx
    2a18:	c3                   	retq   
    2a19:	48 8d 35 b6 07 00 00 	lea    0x7b6(%rip),%rsi        # 31d6 <array.3415+0x526>
    2a20:	bf 01 00 00 00       	mov    $0x1,%edi
    2a25:	b8 00 00 00 00       	mov    $0x0,%eax
    2a2a:	e8 01 e7 ff ff       	callq  1130 <__printf_chk@plt>
    2a2f:	66 c7 03 4f 4b       	movw   $0x4b4f,(%rbx)
    2a34:	c6 43 02 00          	movb   $0x0,0x2(%rbx)
    2a38:	b8 00 00 00 00       	mov    $0x0,%eax
    2a3d:	eb d8                	jmp    2a17 <driver_post+0x1d>
    2a3f:	41 50                	push   %r8
    2a41:	52                   	push   %rdx
    2a42:	4c 8d 0d a4 07 00 00 	lea    0x7a4(%rip),%r9        # 31ed <array.3415+0x53d>
    2a49:	49 89 f0             	mov    %rsi,%r8
    2a4c:	48 89 f9             	mov    %rdi,%rcx
    2a4f:	48 8d 15 a0 07 00 00 	lea    0x7a0(%rip),%rdx        # 31f6 <array.3415+0x546>
    2a56:	be 6e 3b 00 00       	mov    $0x3b6e,%esi
    2a5b:	48 8d 3d 09 05 00 00 	lea    0x509(%rip),%rdi        # 2f6b <array.3415+0x2bb>
    2a62:	e8 1e f5 ff ff       	callq  1f85 <submitr>
    2a67:	48 83 c4 10          	add    $0x10,%rsp
    2a6b:	eb aa                	jmp    2a17 <driver_post+0x1d>
    2a6d:	0f 1f 00             	nopl   (%rax)

0000000000002a70 <__libc_csu_init>:
    2a70:	41 57                	push   %r15
    2a72:	41 56                	push   %r14
    2a74:	49 89 d7             	mov    %rdx,%r15
    2a77:	41 55                	push   %r13
    2a79:	41 54                	push   %r12
    2a7b:	4c 8d 25 66 12 20 00 	lea    0x201266(%rip),%r12        # 203ce8 <__frame_dummy_init_array_entry>
    2a82:	55                   	push   %rbp
    2a83:	48 8d 2d 66 12 20 00 	lea    0x201266(%rip),%rbp        # 203cf0 <__init_array_end>
    2a8a:	53                   	push   %rbx
    2a8b:	41 89 fd             	mov    %edi,%r13d
    2a8e:	49 89 f6             	mov    %rsi,%r14
    2a91:	4c 29 e5             	sub    %r12,%rbp
    2a94:	48 83 ec 08          	sub    $0x8,%rsp
    2a98:	48 c1 fd 03          	sar    $0x3,%rbp
    2a9c:	e8 57 e5 ff ff       	callq  ff8 <_init>
    2aa1:	48 85 ed             	test   %rbp,%rbp
    2aa4:	74 20                	je     2ac6 <__libc_csu_init+0x56>
    2aa6:	31 db                	xor    %ebx,%ebx
    2aa8:	0f 1f 84 00 00 00 00 	nopl   0x0(%rax,%rax,1)
    2aaf:	00 
    2ab0:	4c 89 fa             	mov    %r15,%rdx
    2ab3:	4c 89 f6             	mov    %r14,%rsi
    2ab6:	44 89 ef             	mov    %r13d,%edi
    2ab9:	41 ff 14 dc          	callq  *(%r12,%rbx,8)
    2abd:	48 83 c3 01          	add    $0x1,%rbx
    2ac1:	48 39 dd             	cmp    %rbx,%rbp
    2ac4:	75 ea                	jne    2ab0 <__libc_csu_init+0x40>
    2ac6:	48 83 c4 08          	add    $0x8,%rsp
    2aca:	5b                   	pop    %rbx
    2acb:	5d                   	pop    %rbp
    2acc:	41 5c                	pop    %r12
    2ace:	41 5d                	pop    %r13
    2ad0:	41 5e                	pop    %r14
    2ad2:	41 5f                	pop    %r15
    2ad4:	c3                   	retq   
    2ad5:	90                   	nop
    2ad6:	66 2e 0f 1f 84 00 00 	nopw   %cs:0x0(%rax,%rax,1)
    2add:	00 00 00 

0000000000002ae0 <__libc_csu_fini>:
    2ae0:	f3 c3                	repz retq 

Disassembly of section .fini:

0000000000002ae4 <_fini>:
    2ae4:	48 83 ec 08          	sub    $0x8,%rsp
    2ae8:	48 83 c4 08          	add    $0x8,%rsp
    2aec:	c3                   	retq   
